
f4e750bb-1437-4fbf-8785-8d3580c34994.elf:     file format elf64-littleaarch64
f4e750bb-1437-4fbf-8785-8d3580c34994.elf
architecture: aarch64, flags 0x00000150:
HAS_SYMS, DYNAMIC, D_PAGED
start address 0x0000000000000504

Program Header:
    LOAD off    0x0000000000001000 vaddr 0x0000000000000000 paddr 0x0000000000000000 align 2**12
         filesz 0x0000000000012ed8 memsz 0x0000000000012ed8 flags r-x
    LOAD off    0x0000000000014000 vaddr 0x0000000000013000 paddr 0x0000000000013000 align 2**12
         filesz 0x00000000000005bc memsz 0x000000000000c660 flags rw-
 DYNAMIC off    0x0000000000014000 vaddr 0x0000000000013000 paddr 0x0000000000013000 align 2**3
         filesz 0x0000000000000110 memsz 0x0000000000000110 flags rw-
   STACK off    0x0000000000000000 vaddr 0x0000000000000000 paddr 0x0000000000000000 align 2**4
         filesz 0x0000000000000000 memsz 0x0000000000000000 flags rw-

Dynamic Section:
  HASH                 0x0000000000012b60
  GNU_HASH             0x0000000000012a70
  STRTAB               0x0000000000012b30
  SYMTAB               0x0000000000012aa0
  STRSZ                0x000000000000002e
  SYMENT               0x0000000000000018
  DEBUG                0x0000000000000000
  RELA                 0x0000000000012b90
  RELASZ               0x0000000000000558
  RELAENT              0x0000000000000018
  FLAGS_1              0x0000000008000000
  RELACOUNT            0x0000000000000023
private flags = 0:

Sections:
Idx Name          Size      VMA               LMA               File off  Algn
  0 .ta_head      00000020  0000000000000000  0000000000000000  00001000  2**3
                  CONTENTS, ALLOC, LOAD, READONLY, DATA
  1 .text         0000e648  0000000000000020  0000000000000020  00001020  2**4
                  CONTENTS, ALLOC, LOAD, READONLY, CODE
  2 .eh_frame     0000305c  000000000000e668  000000000000e668  0000f668  2**3
                  CONTENTS, ALLOC, LOAD, READONLY, DATA
  3 .rodata       000013a6  00000000000116c8  00000000000116c8  000126c8  2**3
                  CONTENTS, ALLOC, LOAD, READONLY, DATA
  4 .gnu.hash     00000030  0000000000012a70  0000000000012a70  00013a70  2**3
                  CONTENTS, ALLOC, LOAD, READONLY, DATA
  5 .dynsym       00000090  0000000000012aa0  0000000000012aa0  00013aa0  2**3
                  CONTENTS, ALLOC, LOAD, READONLY, DATA
  6 .dynstr       0000002e  0000000000012b30  0000000000012b30  00013b30  2**0
                  CONTENTS, ALLOC, LOAD, READONLY, DATA
  7 .hash         0000002c  0000000000012b60  0000000000012b60  00013b60  2**3
                  CONTENTS, ALLOC, LOAD, READONLY, DATA
  8 .rela.dyn     00000348  0000000000012b90  0000000000012b90  00013b90  2**3
                  CONTENTS, ALLOC, LOAD, READONLY, DATA
  9 .dynamic      00000110  0000000000013000  0000000000013000  00014000  2**3
                  CONTENTS, ALLOC, LOAD, DATA
 10 .got          000000d0  0000000000013110  0000000000013110  00014110  2**3
                  CONTENTS, ALLOC, LOAD, DATA
 11 .rela.got     00000210  00000000000131e0  00000000000131e0  000141e0  2**3
                  CONTENTS, ALLOC, LOAD, READONLY, DATA
 12 .data         000001cc  00000000000133f0  00000000000133f0  000143f0  2**3
                  CONTENTS, ALLOC, LOAD, DATA
 13 .bss          0000c0a0  00000000000135c0  00000000000135c0  000145bc  2**3
                  ALLOC
 14 .debug_info   0001d81c  0000000000000000  0000000000000000  000145bc  2**0
                  CONTENTS, READONLY, DEBUGGING, OCTETS
 15 .debug_abbrev 0000467c  0000000000000000  0000000000000000  00031dd8  2**0
                  CONTENTS, READONLY, DEBUGGING, OCTETS
 16 .debug_loc    00028e1f  0000000000000000  0000000000000000  00036454  2**0
                  CONTENTS, READONLY, DEBUGGING, OCTETS
 17 .debug_aranges 000009b0  0000000000000000  0000000000000000  0005f280  2**4
                  CONTENTS, READONLY, DEBUGGING, OCTETS
 18 .debug_ranges 00001df0  0000000000000000  0000000000000000  0005fc30  2**4
                  CONTENTS, READONLY, DEBUGGING, OCTETS
 19 .debug_macro  00019b08  0000000000000000  0000000000000000  00061a20  2**0
                  CONTENTS, READONLY, DEBUGGING, OCTETS
 20 .debug_line   0001033b  0000000000000000  0000000000000000  0007b528  2**0
                  CONTENTS, READONLY, DEBUGGING, OCTETS
 21 .debug_str    0001ba2e  0000000000000000  0000000000000000  0008b863  2**0
                  CONTENTS, READONLY, DEBUGGING, OCTETS
 22 .comment      0000004a  0000000000000000  0000000000000000  000a7291  2**0
                  CONTENTS, READONLY
SYMBOL TABLE:
0000000000000000 l    d  .ta_head	0000000000000000 .ta_head
0000000000000020 l    d  .text	0000000000000000 .text
000000000000e668 l    d  .eh_frame	0000000000000000 .eh_frame
00000000000116c8 l    d  .rodata	0000000000000000 .rodata
0000000000012a70 l    d  .gnu.hash	0000000000000000 .gnu.hash
0000000000012aa0 l    d  .dynsym	0000000000000000 .dynsym
0000000000012b30 l    d  .dynstr	0000000000000000 .dynstr
0000000000012b60 l    d  .hash	0000000000000000 .hash
0000000000012b90 l    d  .rela.dyn	0000000000000000 .rela.dyn
0000000000013000 l    d  .dynamic	0000000000000000 .dynamic
0000000000013110 l    d  .got	0000000000000000 .got
00000000000131e0 l    d  .rela.got	0000000000000000 .rela.got
00000000000133f0 l    d  .data	0000000000000000 .data
00000000000135c0 l    d  .bss	0000000000000000 .bss
0000000000000000 l    d  .debug_info	0000000000000000 .debug_info
0000000000000000 l    d  .debug_abbrev	0000000000000000 .debug_abbrev
0000000000000000 l    d  .debug_loc	0000000000000000 .debug_loc
0000000000000000 l    d  .debug_aranges	0000000000000000 .debug_aranges
0000000000000000 l    d  .debug_ranges	0000000000000000 .debug_ranges
0000000000000000 l    d  .debug_macro	0000000000000000 .debug_macro
0000000000000000 l    d  .debug_line	0000000000000000 .debug_line
0000000000000000 l    d  .debug_str	0000000000000000 .debug_str
0000000000000000 l    d  .comment	0000000000000000 .comment
0000000000000000 l    df *ABS*	0000000000000000 user_ta_header.c
00000000000116d0 l     O .rodata	0000000000000004 __compound_literal.7
00000000000116d4 l     O .rodata	0000000000000001 __compound_literal.6
00000000000116d8 l     O .rodata	0000000000000004 __compound_literal.5
00000000000116dc l     O .rodata	0000000000000004 __compound_literal.4
00000000000116e0 l     O .rodata	0000000000000004 __compound_literal.3
00000000000116e4 l     O .rodata	0000000000000001 __compound_literal.2
00000000000116e5 l     O .rodata	0000000000000001 __compound_literal.1
00000000000116e6 l     O .rodata	0000000000000001 __compound_literal.0
0000000000000000 l    df *ABS*	0000000000000000 memcpy.c
0000000000000000 l    df *ABS*	0000000000000000 secure_storage_ta.c
0000000000011c42 l     O .rodata	0000000000000022 __func__.4636
0000000000011c64 l     O .rodata	0000000000000012 __func__.4600
0000000000011c76 l     O .rodata	0000000000000010 __func__.4614
0000000000011c86 l     O .rodata	000000000000000e __func__.4587
0000000000000000 l    df *ABS*	0000000000000000 stack_check.c
0000000000000000 l    df *ABS*	0000000000000000 trace.c
0000000000011e06 l     O .rodata	0000000000000005 lvl_strs.3595
0000000000000000 l    df *ABS*	0000000000000000 snprintk.c
0000000000000a78 l     F .text	0000000000000be0 kprintf.constprop.0
00000000000117aa l     O .rodata	0000000000000011 HEXDIGITS
00000000000117bb l     O .rodata	0000000000000011 hexdigits
0000000000000000 l    df *ABS*	0000000000000000 memchr.c
0000000000000000 l    df *ABS*	0000000000000000 strlen.c
0000000000000000 l    df *ABS*	0000000000000000 trace_ext.c
0000000000000000 l    df *ABS*	0000000000000000 tee_api.c
00000000000018cc l     F .text	000000000000006c copy_param
0000000000001938 l     F .text	0000000000000070 copy_gp11_param
00000000000019a8 l     F .text	0000000000000094 check_mem_access_rights_params
0000000000001a3c l     F .text	0000000000000044 buf_overlaps_no_share_heap
0000000000001a80 l     F .text	00000000000000a8 check_invoke_param
0000000000001b28 l     F .text	00000000000000a8 update_out_param
0000000000001bd0 l     F .text	00000000000000ac update_out_gp11_param
0000000000001e4c l     F .text	000000000000019c map_tmp_param
00000000000135c0 l     O .bss	0000000000000008 tee_api_instance_data
0000000000011708 l     O .rodata	000000000000000b __func__.5408
0000000000000000 l    df *ABS*	0000000000000000 tee_api_objects.c
0000000000000000 l    df *ABS*	0000000000000000 tee_api_panic.c
00000000000043c4 l     F .text	000000000000001c check_access
00000000000043e8 l     F .text	0000000000000010 check_res.isra.0
0000000000000000 l    df *ABS*	0000000000000000 tee_system_pta.c
00000000000045e0 l     F .text	0000000000000088 invoke_system_pta
00000000000117cc l     O .rodata	0000000000000010 uuid.4625
00000000000117dc l     O .rodata	000000000000000a __func__.4645
00000000000117e6 l     O .rodata	0000000000000017 __func__.4657
00000000000135d0 l     O .bss	0000000000000008 sess.4624
0000000000000000 l    df *ABS*	0000000000000000 user_ta_entry.c
00000000000048f0 l     F .text	00000000000000b0 _get_fn_array
00000000000049a0 l     F .text	0000000000000090 _fini_iterate_phdr_cb
0000000000004a30 l     F .text	0000000000000028 ta_header_get_session
0000000000004a58 l     F .text	000000000000006c to_utee_params
0000000000004ac4 l     F .text	000000000000005c from_utee_params
0000000000004b20 l     F .text	0000000000000094 _init_iterate_phdr_cb
0000000000004d1c l     F .text	0000000000000098 ta_header_remove_session
0000000000011ef8 l     O .rodata	0000000000000016 __func__.5372
00000000000135d8 l     O .bss	0000000000000008 _num_mod_init
00000000000135e0 l     O .bss	0000000000000001 init_done
0000000000013500 l     O .data	0000000000000010 ta_sessions
0000000000013510 l     O .data	0000000000000010 __phdr_info_head
0000000000000000 l    df *ABS*	0000000000000000 user_ta_entry_compat.c
000000000000503c l     F .text	0000000000000064 to_gp11_param
00000000000050a0 l     F .text	0000000000000064 from_gp11_param
0000000000000000 l    df *ABS*	0000000000000000 utee_syscalls_a64.o
0000000000000000 l    df *ABS*	0000000000000000 abort.c
0000000000000000 l    df *ABS*	0000000000000000 tee_api_arith_mpi.c
000000000000553c l     F .text	0000000000000030 api_panic
000000000000556c l     F .text	0000000000000030 mpi_panic
000000000000559c l     F .text	0000000000000098 get_mpi
0000000000005634 l     F .text	0000000000000064 copy_mpi_to_bigint
0000000000005698 l     F .text	000000000000014c bigint_binary
00000000000057e4 l     F .text	0000000000000020 mpi_is_odd
0000000000005804 l     F .text	0000000000000028 rng_read
000000000000582c l     F .text	0000000000000574 mpi_egcd
0000000000013648 l     O .bss	0000000000004000 data.5215
00000000000062cc l     F .text	00000000000001d0 bigint_binary_mod
0000000000011fde l     O .rodata	0000000000000008 __func__.5249
0000000000011fe6 l     O .rodata	000000000000000e __func__.5387
0000000000011ff4 l     O .rodata	0000000000000009 __func__.5551
0000000000011ffd l     O .rodata	0000000000000012 __func__.5216
000000000001200f l     O .rodata	000000000000000f __func__.5255
000000000001201e l     O .rodata	000000000000001f __func__.5283
000000000001203d l     O .rodata	0000000000000019 __func__.5297
0000000000012056 l     O .rodata	0000000000000012 __func__.5406
0000000000012068 l     O .rodata	0000000000000015 __func__.5328
000000000001207d l     O .rodata	000000000000000e __func__.5427
000000000001208b l     O .rodata	000000000000000e __func__.5456
0000000000012099 l     O .rodata	000000000000000e __func__.5464
00000000000120a7 l     O .rodata	0000000000000011 __func__.5497
00000000000120b8 l     O .rodata	0000000000000018 __func__.5510
00000000000120d0 l     O .rodata	0000000000000011 __func__.5531
00000000000120e1 l     O .rodata	000000000000001d __func__.5608
00000000000120fe l     O .rodata	0000000000000019 __func__.5681
0000000000012117 l     O .rodata	0000000000000015 __func__.5696
0000000000000000 l    df *ABS*	0000000000000000 tee_api_property.c
0000000000007668 l     F .text	000000000000006c propset_get
00000000000076d4 l     F .text	000000000000002c is_propset_pseudo_handle
0000000000007700 l     F .text	0000000000000148 propget_get_ext_prop
0000000000007848 l     F .text	00000000000001b0 propget_get_property
0000000000011810 l     O .rodata	0000000000000004 __compound_literal.3
0000000000011814 l     O .rodata	0000000000000004 __compound_literal.2
0000000000011818 l     O .rodata	0000000000000004 __compound_literal.1
000000000001181c l     O .rodata	0000000000000004 __compound_literal.0
0000000000000000 l    df *ABS*	0000000000000000 tcb.c
0000000000012239 l     O .rodata	0000000000000010 __func__.4082
0000000000012249 l     O .rodata	0000000000000010 __func__.4109
0000000000017648 l     O .bss	0000000000000008 _tls_size
0000000000017650 l     O .bss	0000000000000008 _tcb
0000000000000000 l    df *ABS*	0000000000000000 assert.c
0000000000000000 l    df *ABS*	0000000000000000 base64.c
0000000000011824 l     O .rodata	0000000000000041 base64_table
0000000000000000 l    df *ABS*	0000000000000000 bignum.c
0000000000008bdc l     F .text	0000000000000064 mpi_get_digit
0000000000008c40 l     F .text	000000000000040c mpi_mul_hlp
000000000000904c l     F .text	0000000000000038 mpi_montg_init.isra.0
0000000000009084 l     F .text	00000000000000ac mpi_bigendian_to_host.part.0
0000000000009130 l     F .text	00000000000000c0 mpi_fill_random_internal
00000000000091f0 l     F .text	0000000000000148 mpi_montmul.isra.0
0000000000009338 l     F .text	0000000000000078 mpi_montred
000000000000953c l     F .text	000000000000006c mbedtls_mpi_resize_clear
000000000000b274 l     F .text	00000000000000c4 mpi_check_small_factors
000000000000bc58 l     F .text	00000000000002a4 mpi_miller_rabin
0000000000011868 l     O .rodata	00000000000002a0 small_prime
0000000000011b08 l     O .rodata	0000000000000024 gcd_pairs
0000000000000000 l    df *ABS*	0000000000000000 constant_time.c
000000000000cd6c l     F .text	0000000000000020 mbedtls_ct_uchar_mask_of_range
0000000000000000 l    df *ABS*	0000000000000000 platform_util.c
0000000000013580 l     O .data	0000000000000008 memset_func
0000000000000000 l    df *ABS*	0000000000000000 bget_malloc.c
000000000000d54c l     F .text	0000000000000010 _assert_trap
000000000000d55c l     F .text	0000000000000028 bget_buf_size.part.0
0000000000012968 l     O .rodata	000000000000000e __func__.3964
0000000000012976 l     O .rodata	0000000000000005 __func__.3890
000000000001297b l     O .rodata	0000000000000006 __func__.3910
0000000000012981 l     O .rodata	0000000000000005 __func__.3931
0000000000012986 l     O .rodata	0000000000000006 __func__.3921
000000000001298c l     O .rodata	0000000000000006 __func__.3940
0000000000012992 l     O .rodata	0000000000000014 __func__.4150
00000000000129a6 l     O .rodata	0000000000000013 __func__.4014
0000000000013588 l     O .data	0000000000000030 malloc_ctx
0000000000000000 l    df *ABS*	0000000000000000 snprintf.c
0000000000000000 l    df *ABS*	0000000000000000 memmove.c
0000000000000000 l    df *ABS*	0000000000000000 memset.c
0000000000000000 l    df *ABS*	0000000000000000 strcmp.c
0000000000000000 l    df *ABS*	0000000000000000 strlcpy.c
0000000000000000 l    df *ABS*	0000000000000000 mempool.c
0000000000012a42 l     O .rodata	0000000000000013 __func__.3696
0000000000012a55 l     O .rodata	000000000000000b __func__.3677
0000000000012a60 l     O .rodata	000000000000000e __func__.3702
0000000000000000 l    df *ABS*	0000000000000000 consttime_memcmp.c
0000000000000000 l    df *ABS*	0000000000000000 
0000000000013000 l     O *ABS*	0000000000000000 _DYNAMIC
0000000000013128 l     O *ABS*	0000000000000000 _GLOBAL_OFFSET_TABLE_
000000000000185c g     F .text	0000000000000070 putchar
0000000000005f20 g     F .text	0000000000000008 __GP11_TEE_BigIntConvertFromOctetString
00000000000032dc g     F .text	0000000000000110 TEE_PopulateTransientObject
000000000000744c g     F .text	0000000000000004 TEE_BigIntConvertToFMM
0000000000006cc0 g     F .text	000000000000000c TEE_BigIntSquareMod
000000000000649c g     F .text	00000000000001a0 TEE_BigIntShiftRight
000000000000df78 g     F .text	00000000000000c8 raw_malloc_add_pool
00000000000047e0 g     F .text	0000000000000110 tee_invoke_supp_plugin
0000000000009454 g     F .text	00000000000000e8 mbedtls_mpi_grow
0000000000008350 g     F .text	0000000000000128 __GP11_TEE_GetPropertyName
0000000000002894 g     F .text	00000000000000d8 TEE_Realloc
00000000000045c0 g     F .text	0000000000000020 __utee_check_inout_annotation
000000000000dd5c g     F .text	0000000000000010 raw_free
000000000000171c g     F .text	0000000000000100 printf
0000000000006838 g     F .text	000000000000002c TEE_BigIntAbs
00000000000034fc g     F .text	000000000000004c TEE_InitRefAttribute
0000000000005288 g     F .text	000000000000000c _utee_log
0000000000002284 g     F .text	0000000000000184 TEE_InvokeTACommand
00000000000035e4 g     F .text	000000000000004c __GP11_TEE_InitValueAttribute
00000000000043f8 g     F .text	000000000000004c __utee_check_outbuf_annotation
00000000000093c0 g     F .text	0000000000000028 mbedtls_mpi_init_mempool
0000000000005408 g     F .text	000000000000000c _utee_cryp_random_number_generate
0000000000009bbc g     F .text	00000000000000c4 mbedtls_mpi_write_binary
0000000000000954 g     F .text	0000000000000058 vsnprintk
000000000000a438 g     F .text	0000000000000074 mbedtls_mpi_sub_int
000000000000e374 g     F .text	000000000000005c memmove
000000000000e24c g     F .text	00000000000000d0 snprintf
0000000000006250 g     F .text	000000000000007c TEE_BigIntCmpS32
00000000000025a4 g     F .text	0000000000000008 __GP11_TEE_MemMove
00000000000134f8 g     O .data	0000000000000008 __stack_chk_guard
000000000000d2b0 g     F .text	000000000000027c mbedtls_ct_rsaes_pkcs1_v15_unpadding
0000000000003598 g     F .text	000000000000004c TEE_InitValueAttribute
00000000000095a8 g     F .text	0000000000000120 mbedtls_mpi_shrink
00000000000025bc g     F .text	0000000000000008 __GP11_TEE_MemFill
0000000000006864 g     F .text	000000000000000c TEE_BigIntAdd
00000000000053a8 g     F .text	000000000000000c _utee_cryp_obj_restrict_usage
0000000000003548 g     F .text	0000000000000050 __GP11_TEE_InitRefAttribute
00000000000116f0 g     O .rodata	0000000000000008 ta_heap_size
000000000000324c g     F .text	0000000000000090 TEE_ResetTransientObject
0000000000005450 g     F .text	000000000000000c _utee_asymm_operate
0000000000008984 g     F .text	0000000000000018 _base64_enc_len
000000000000a700 g     F .text	000000000000020c mbedtls_mpi_read_string
0000000000003890 g     F .text	00000000000000d4 __GP11_TEE_GenerateKey
000000000000687c g     F .text	00000000000000e4 TEE_BigIntNeg
00000000000054a4 g     F .text	000000000000000c _utee_storage_free_enum
0000000000000020 g       .text	0000000000000000 __text_start
0000000000008500 g     F .text	00000000000000e0 TEE_GetNextProperty
0000000000003dc8 g     F .text	0000000000000050 TEE_StartPersistentObjectEnumerator
0000000000009d90 g     F .text	00000000000000c0 mbedtls_mpi_shift_r
000000000000e238 g     F .text	0000000000000014 malloc_buffer_overlaps_heap
0000000000005354 g     F .text	000000000000000c _utee_hash_init
0000000000006ca8 g     F .text	000000000000000c TEE_BigIntSubMod
000000000000c5f8 g     F .text	000000000000034c mbedtls_mpi_gen_prime
0000000000008080 g     F .text	0000000000000098 TEE_GetPropertyAsBinaryBlock
0000000000009884 g     F .text	000000000000002c mbedtls_mpi_get_bit
00000000000116e8 g     O .rodata	0000000000000008 __ta_no_share_heap_size
0000000000009a80 g     F .text	0000000000000084 mbedtls_mpi_read_binary
00000000000007b0 g     F .text	00000000000000e0 trace_printf
000000000000b340 g     F .text	0000000000000008 mbedtls_mpi_montmul
0000000000005510 g     F .text	000000000000000c _utee_cache_operation
0000000000000020 g     F .text	00000000000000ec memcpy
0000000000007450 g     F .text	00000000000000d0 TEE_BigIntConvertFromFMM
00000000000043e0 g     F .text	0000000000000008 TEE_Panic
000000000000181c g     F .text	0000000000000040 puts
0000000000007520 g     F .text	0000000000000148 TEE_BigIntComputeFMM
00000000000026e0 g     F .text	0000000000000028 TEE_GetREETime
0000000000003ce8 g     F .text	0000000000000090 TEE_AllocatePersistentObjectEnumerator
00000000000133f0 g     O .data	0000000000000108 ta_props
000000000000282c g     F .text	0000000000000008 __GP11_TEE_Malloc
000000000000213c g     F .text	0000000000000148 __GP11_TEE_OpenTASession
0000000000004490 g     F .text	0000000000000030 __utee_check_instring_annotation
000000000000dea4 g     F .text	0000000000000018 malloc
000000000000833c g     F .text	0000000000000004 TEE_FreePropertyEnumerator
000000000000cde4 g     F .text	0000000000000010 mbedtls_ct_mpi_uint_mask
00000000000037bc g     F .text	00000000000000d4 TEE_GenerateKey
000000000000e31c g     F .text	0000000000000058 vsnprintf
00000000000135b8 g     O .data	0000000000000004 trace_level
0000000000003a48 g     F .text	0000000000000008 __GP11_TEE_OpenPersistentObject
00000000000061bc g     F .text	0000000000000094 TEE_BigIntCmp
00000000000116c8 g     O .rodata	0000000000000008 ta_num_props
000000000000db58 g     F .text	00000000000000d0 bgetr
0000000000005468 g     F .text	000000000000000c _utee_storage_obj_open
00000000000025b0 g     F .text	0000000000000008 __GP11_TEE_MemCompare
000000000000e5e4 g     F .text	0000000000000014 mempool_free
0000000000005360 g     F .text	000000000000000c _utee_hash_update
0000000000005f28 g     F .text	00000000000000c8 TEE_BigIntConvertToOctetString
0000000000009990 g     F .text	000000000000005c mbedtls_mpi_bitlen
0000000000006644 g     F .text	0000000000000080 TEE_BigIntGetBit
00000000000116f8 g     O .rodata	0000000000000003 trace_ext_prefix
00000000000054c8 g     F .text	000000000000000c _utee_storage_next_enum
000000000000dd4c g     F .text	0000000000000010 raw_malloc
000000000000d84c g     F .text	0000000000000088 bgetz
000000000000cdf4 g     F .text	0000000000000018 mbedtls_ct_size_bool_eq
0000000000002594 g     F .text	000000000000000c TEE_GetInstanceData
00000000000025ec g     F .text	000000000000003c TEE_Wait
000000000000a4ac g     F .text	00000000000001ac mbedtls_mpi_mul_mpi
000000000000663c g     F .text	0000000000000008 __GP11_TEE_BigIntShiftRight
000000000000297c g     F .text	0000000000000008 TEE_CacheFlush
0000000000000594 g     F .text	000000000000021c trace_vprintf
0000000000000114 g     F .text	0000000000000004 TA_DestroyEntryPoint
00000000000093b0 g     F .text	0000000000000010 mbedtls_mpi_init
0000000000005480 g     F .text	000000000000000c _utee_storage_obj_del
000000000000993c g     F .text	0000000000000054 mbedtls_mpi_lsb
000000000000892c g     F .text	0000000000000044 _assert_log
000000000000533c g     F .text	000000000000000c _utee_cryp_state_copy
000000000000742c g     F .text	0000000000000008 TEE_BigIntFMMContextSizeInU32
0000000000004718 g     F .text	00000000000000c8 tee_unmap
000000000000ce28 g     F .text	0000000000000030 mbedtls_ct_uint_if
0000000000003c84 g     F .text	000000000000005c TEE_RenamePersistentObject
00000000000033ec g     F .text	0000000000000110 __GP11_TEE_PopulateTransientObject
0000000000005da0 g     F .text	0000000000000050 _TEE_MathAPI_Init
00000000000085e0 g     F .text	0000000000000240 __utee_tcb_init
000000000000a2b0 g     F .text	0000000000000088 mbedtls_mpi_add_mpi
000000000000551c g     F .text	0000000000000020 abort
000000000000befc g     F .text	00000000000001b8 mbedtls_mpi_random
0000000000000538 g     F .text	0000000000000030 __stack_chk_fail
0000000000004558 g     F .text	0000000000000020 __utee_check_out_annotation
0000000000017660 g     O .bss	0000000000008000 ta_heap
0000000000006ccc g     F .text	0000000000000150 TEE_BigIntInvMod
0000000000004bb4 g     F .text	0000000000000158 __utee_call_elf_init_fn
0000000000002ae8 g     F .text	00000000000000c4 __GP11_TEE_GetObjectInfo
0000000000000120 g     F .text	0000000000000004 TA_CloseSessionEntryPoint
0000000000000124 g     F .text	00000000000003e0 __GP11_TA_InvokeCommandEntryPoint
00000000000052c4 g     F .text	000000000000000c _utee_close_ta_session
00000000000073f4 g     F .text	0000000000000008 __GP11_TEE_BigIntInitFMMContext
0000000000002c5c g     F .text	00000000000000c0 __GP11_TEE_GetObjectInfo1
0000000000003964 g     F .text	00000000000000e4 TEE_OpenPersistentObject
000000000000a338 g     F .text	000000000000008c mbedtls_mpi_sub_mpi
000000000000e5f8 g     F .text	0000000000000070 consttime_memcmp
000000000000527c g     F .text	000000000000000c _utee_return
0000000000005294 g     F .text	000000000000000c __utee_panic
000000000000cd8c g     F .text	0000000000000048 mbedtls_ct_memcmp
0000000000008820 g     F .text	000000000000001c __tls_get_addr
000000000000052c g     F .text	000000000000000c TA_InvokeCommandEntryPoint
0000000000004d0c g     F .text	0000000000000010 __utee_call_elf_fini_fn
000000000000df34 g     F .text	0000000000000010 free_wipe
000000000000e530 g     F .text	0000000000000064 mempool_alloc
0000000000005270 g     F .text	000000000000000c _utee_panic
000000000000df4c g     F .text	000000000000002c raw_malloc_init_ctx
000000000000e594 g     F .text	0000000000000050 mempool_calloc
0000000000005504 g     F .text	000000000000000c _utee_cryp_obj_generate_key
00000000000054ec g     F .text	000000000000000c _utee_storage_obj_trunc
0000000000003728 g     F .text	0000000000000094 TEE_CopyObjectAttributes
0000000000013520 g     O .data	0000000000000060 tee_props
00000000000052f4 g     F .text	000000000000000c _utee_unmask_cancellation
00000000000082e8 g     F .text	000000000000000c TEE_ResetPropertyEnumerator
000000000000debc g     F .text	000000000000001c calloc
0000000000002708 g     F .text	0000000000000124 TEE_Malloc
0000000000001dc4 g     F .text	0000000000000088 TEE_CheckMemoryAccessRights
0000000000008118 g     F .text	00000000000000e8 TEE_GetPropertyAsUUID
00000000000052a0 g     F .text	000000000000000c _utee_get_property
0000000000006738 g     F .text	00000000000000b0 TEE_BigIntSetBit
000000000000981c g     F .text	0000000000000068 mbedtls_mpi_lset
0000000000004060 g     F .text	00000000000000c8 TEE_ReadObjectData
0000000000002df0 g     F .text	0000000000000104 TEE_GetObjectBufferAttribute
0000000000000520 g     F .text	000000000000000c TA_OpenSessionEntryPoint
0000000000000118 g     F .text	0000000000000008 __GP11_TA_OpenSessionEntryPoint
000000000000883c g     F .text	00000000000000f0 dl_iterate_phdr
000000000001f660 g       .bss	0000000000000000 __ftrace_buf_end
00000000000135e8 g     O .bss	0000000000000004 ta_param_types
000000000000ae40 g     F .text	0000000000000074 mbedtls_mpi_div_int
000000000000298c g     F .text	0000000000000050 __utee_from_attr
000000000000c50c g     F .text	00000000000000dc mbedtls_mpi_is_prime_ext
0000000000007360 g     F .text	0000000000000084 TEE_BigIntIsProbablePrime
000000000000a658 g     F .text	00000000000000a8 mbedtls_mpi_mul_int
0000000000003c10 g     F .text	0000000000000048 TEE_CloseAndDeletePersistentObject1
000000000000b34c g     F .text	00000000000006cc mbedtls_mpi_exp_mod
000000000000d000 g     F .text	00000000000000bc mbedtls_mpi_safe_cond_assign
00000000000079f8 g     F .text	000000000000025c TEE_GetPropertyAsString
000000000000d1b8 g     F .text	00000000000000f8 mbedtls_mpi_lt_mpi_ct
0000000000005df0 g     F .text	0000000000000060 TEE_BigIntInit
0000000000005ff0 g     F .text	0000000000000060 __GP11_TEE_BigIntConvertToOctetString
00000000000067e8 g     F .text	0000000000000050 TEE_BigIntAssign
00000000000044c0 g     F .text	000000000000004c __utee_check_outstring_annotation
00000000000025a0 g     F .text	0000000000000004 TEE_MemMove
000000000000d52c g     F .text	0000000000000020 mbedtls_platform_zeroize
0000000000005e58 g     F .text	00000000000000c8 TEE_BigIntConvertFromOctetString
0000000000005444 g     F .text	000000000000000c _utee_authenc_dec_final
0000000000009e50 g     F .text	000000000000009c mbedtls_mpi_cmp_abs
00000000000054d4 g     F .text	000000000000000c _utee_storage_obj_read
00000000000016a4 g     F .text	000000000000002c memchr
0000000000001d04 g     F .text	0000000000000060 TEE_UnmaskCancellation
0000000000002a2c g     F .text	00000000000000bc TEE_GetObjectInfo
000000000000c944 g     F .text	0000000000000428 mbedtls_mpi_self_test
0000000000004444 g     F .text	000000000000004c __utee_check_gp11_outbuf_annotation
00000000000054f8 g     F .text	000000000000000c _utee_storage_obj_seek
00000000000031bc g     F .text	0000000000000090 TEE_FreeTransientObject
00000000000052e8 g     F .text	000000000000000c _utee_check_access_rights
0000000000002408 g     F .text	0000000000000178 __GP11_TEE_InvokeTACommand
0000000000009fc0 g     F .text	0000000000000074 mbedtls_mpi_cmp_int
0000000000008ab8 g     F .text	0000000000000124 _base64_dec
00000000000054b0 g     F .text	000000000000000c _utee_storage_reset_enum
000000000000cf44 g     F .text	00000000000000bc mbedtls_ct_base64_dec_value
0000000000004578 g     F .text	0000000000000024 __utee_check_attr_in_annotation
000000000000542c g     F .text	000000000000000c _utee_authenc_update_payload
0000000000006c30 g     F .text	000000000000006c TEE_BigIntMod
000000000000af68 g     F .text	000000000000009c mbedtls_mpi_mod_int
0000000000009a08 g     F .text	0000000000000078 mbedtls_mpi_read_binary_le
0000000000006a7c g     F .text	00000000000001b4 TEE_BigIntDiv
00000000000053c0 g     F .text	000000000000000c _utee_cryp_obj_alloc
000000000001f660 g       .bss	0000000000000000 __ftrace_buf_start
000000000000e410 g     F .text	0000000000000058 strlcpy
000000000000ce94 g     F .text	00000000000000b0 mbedtls_ct_base64_enc_char
00000000000096c8 g     F .text	00000000000000cc mbedtls_mpi_copy
0000000000008200 g     F .text	00000000000000e8 TEE_GetPropertyAsIdentity
0000000000001658 g     F .text	000000000000004c __vsprintf
0000000000007eac g     F .text	00000000000000e8 TEE_GetPropertyAsU64
0000000000005324 g     F .text	000000000000000c _utee_set_ta_time
00000000000052d0 g     F .text	000000000000000c _utee_invoke_ta_command
0000000000002d1c g     F .text	0000000000000044 TEE_RestrictObjectUsage1
000000000000ded8 g     F .text	0000000000000018 realloc
0000000000009794 g     F .text	0000000000000088 mbedtls_mpi_swap
000000000000e468 g     F .text	00000000000000c8 mempool_alloc_pool
0000000000006960 g     F .text	0000000000000114 TEE_BigIntMul
000000000000df44 g     F .text	0000000000000008 raw_malloc_get_ctx_size
0000000000009c80 g     F .text	0000000000000110 mbedtls_mpi_shift_l
0000000000009eec g     F .text	00000000000000d4 mbedtls_mpi_cmp_mpi
00000000000025b8 g     F .text	0000000000000004 TEE_MemFill
000000000000e210 g     F .text	0000000000000014 malloc_add_pool
0000000000000584 g     F .text	0000000000000010 trace_get_level
000000000000a034 g     F .text	0000000000000120 mbedtls_mpi_add_abs
0000000000002d60 g     F .text	0000000000000090 TEE_RestrictObjectUsage
0000000000007404 g     F .text	0000000000000010 TEE_BigIntFMMSizeInU32
0000000000007cec g     F .text	00000000000000d8 TEE_GetPropertyAsBool
000000000000ddbc g     F .text	00000000000000e8 raw_realloc
00000000000073e4 g     F .text	0000000000000004 TEE_BigIntInitFMM
00000000000030c4 g     F .text	0000000000000028 TEE_CloseObject
0000000000005378 g     F .text	000000000000000c _utee_cipher_init
0000000000004db4 g     F .text	0000000000000288 __utee_entry
0000000000007dc4 g     F .text	00000000000000e8 TEE_GetPropertyAsU32
000000000000e668 g       .text	0000000000000000 __text_end
0000000000006e1c g     F .text	0000000000000108 TEE_BigIntRelativePrime
000000000000aeb4 g     F .text	00000000000000b4 mbedtls_mpi_mod_mpi
000000000000539c g     F .text	000000000000000c _utee_cryp_obj_get_info
000000000000dc28 g     F .text	00000000000000d0 bpool
00000000000082f4 g     F .text	0000000000000048 TEE_AllocatePropertyEnumerator
0000000000005330 g     F .text	000000000000000c _utee_cryp_state_alloc
0000000000001ca4 g     F .text	0000000000000060 TEE_GetCancellationFlag
0000000000003b94 g     F .text	000000000000007c __GP11_TEE_CreatePersistentObject
000000000000ba18 g     F .text	00000000000001d8 mbedtls_mpi_gcd
000000000000269c g     F .text	0000000000000044 TEE_SetTAPersistentTime
0000000000009b04 g     F .text	00000000000000b8 mbedtls_mpi_write_binary_le
000000000000e3d0 g     F .text	000000000000001c memset
000000000000dcf8 g     F .text	0000000000000054 raw_memalign
0000000000002628 g     F .text	0000000000000074 TEE_GetTAPersistentTime
0000000000000890 g     F .text	0000000000000004 dhex_dump
0000000000003a50 g     F .text	0000000000000144 TEE_CreatePersistentObject
0000000000001d64 g     F .text	0000000000000060 TEE_MaskCancellation
0000000000004240 g     F .text	000000000000005c TEE_TruncateObjectData
00000000000053b4 g     F .text	000000000000000c _utee_cryp_obj_get_attr
0000000000002bac g     F .text	00000000000000b0 TEE_GetObjectInfo1
0000000000005390 g     F .text	000000000000000c _utee_cipher_final
0000000000000568 g     F .text	000000000000001c trace_set_level
0000000000002f8c g     F .text	0000000000000138 TEE_GetObjectValueAttribute
000000000000ce0c g     F .text	000000000000001c mbedtls_ct_mpi_uint_lt
0000000000002ef4 g     F .text	0000000000000098 __GP11_TEE_GetObjectBufferAttribute
0000000000005348 g     F .text	000000000000000c _utee_cryp_state_free
000000000000e3ec g     F .text	0000000000000024 strcmp
00000000000052b8 g     F .text	000000000000000c _utee_open_ta_session
0000000000006100 g     F .text	00000000000000bc TEE_BigIntConvertToS32
0000000000006870 g     F .text	000000000000000c TEE_BigIntSub
00000000000043bc g     F .text	0000000000000008 __GP11_TEE_SeekObjectData
0000000000000518 g     F .text	0000000000000008 tahead_get_trace_level
00000000000054bc g     F .text	000000000000000c _utee_storage_start_enum
00000000000042a4 g     F .text	0000000000000118 TEE_SeekObjectData
0000000000004668 g     F .text	00000000000000b0 tee_map_zi
000000000000429c g     F .text	0000000000000008 __GP11_TEE_TruncateObjectData
000000000000b348 g     F .text	0000000000000004 mbedtls_mpi_montred
000000000000def0 g     F .text	000000000000001c memalign
000000000000cdd4 g     F .text	0000000000000010 mbedtls_ct_uint_mask
0000000000005e50 g     F .text	0000000000000008 __GP11_TEE_BigIntInit
0000000000006050 g     F .text	00000000000000b0 TEE_BigIntConvertFromS32
000000000000a3c4 g     F .text	0000000000000074 mbedtls_mpi_add_int
0000000000005438 g     F .text	000000000000000c _utee_authenc_enc_final
000000000000e224 g     F .text	0000000000000014 malloc_buffer_is_within_alloced
00000000000053cc g     F .text	000000000000000c _utee_cryp_obj_close
00000000000073f0 g     F .text	0000000000000004 TEE_BigIntInitFMMContext
0000000000005300 g     F .text	000000000000000c _utee_mask_cancellation
00000000000135f0 g     O .bss	0000000000000008 __ta_no_share_malloc_ctx
000000000000548c g     F .text	000000000000000c _utee_storage_obj_rename
0000000000003f34 g     F .text	000000000000012c __GP11_TEE_GetNextPersistentObject
00000000000041c0 g     F .text	0000000000000078 TEE_WriteObjectData
0000000000003da0 g     F .text	0000000000000028 TEE_ResetPersistentObjectEnumerator
0000000000002580 g     F .text	0000000000000008 __GP11_TEE_CheckMemoryAccessRights
0000000000006a74 g     F .text	0000000000000008 TEE_BigIntSquare
00000000000054e0 g     F .text	000000000000000c _utee_storage_obj_write
000000000000010c g     F .text	0000000000000008 TA_CreateEntryPoint
0000000000000504 g     F .text	0000000000000014 __ta_entry
000000000001f660 g     O .bss	0000000000000000 __ta_no_share_heap
0000000000005420 g     F .text	000000000000000c _utee_authenc_update_aad
000000000000b338 g     F .text	0000000000000008 mbedtls_mpi_montg_init
00000000000009ac g     F .text	00000000000000cc snprintk
00000000000066c4 g     F .text	0000000000000074 TEE_BigIntGetBitCount
00000000000053f0 g     F .text	000000000000000c _utee_cryp_obj_copy
0000000000006cb4 g     F .text	000000000000000c TEE_BigIntMulMod
000000000000c0b4 g     F .text	0000000000000458 mbedtls_mpi_inv_mod
000000000000459c g     F .text	0000000000000024 __utee_check_gp11_attr_in_annotation
00000000000135f8 g     O .bss	0000000000000040 ta_params
000000000000a90c g     F .text	0000000000000534 mbedtls_mpi_div_mpi
000000000000450c g     F .text	000000000000004c __utee_check_gp11_outstring_annotation
00000000000099ec g     F .text	000000000000001c mbedtls_mpi_size
000000000000d584 g     F .text	00000000000002c8 bget
0000000000004128 g     F .text	0000000000000098 __GP11_TEE_ReadObjectData
00000000000031a0 g     F .text	000000000000001c TEE_AllocateTransientObject
0000000000007434 g     F .text	0000000000000018 __GP11_TEE_BigIntFMMContextSizeInU32
0000000000008340 g     F .text	0000000000000010 TEE_StartPropertyEnumerator
000000000000530c g     F .text	000000000000000c _utee_wait
00000000000098b0 g     F .text	000000000000008c mbedtls_mpi_set_bit
0000000000002834 g     F .text	0000000000000060 TEE_Free
000000000000c5e8 g     F .text	0000000000000010 mbedtls_mpi_is_prime
0000000000002984 g     F .text	0000000000000008 TEE_CacheInvalidate
0000000000008970 g     F .text	0000000000000014 _assert_break
0000000000006c9c g     F .text	000000000000000c TEE_BigIntAddMod
000000000000ce58 g     F .text	000000000000003c mbedtls_ct_mpi_uint_cond_assign
00000000000073e8 g     F .text	0000000000000008 __GP11_TEE_BigIntInitFMM
0000000000005318 g     F .text	000000000000000c _utee_get_time
0000000000008478 g     F .text	0000000000000088 TEE_GetPropertyName
000000000000296c g     F .text	0000000000000008 __GP11_TEE_Realloc
00000000000053e4 g     F .text	000000000000000c _utee_cryp_obj_populate
00000000000029dc g     F .text	0000000000000050 __utee_from_gp11_attr
00000000000025ac g     F .text	0000000000000004 TEE_MemCompare
0000000000005384 g     F .text	000000000000000c _utee_cipher_update
0000000000000894 g     F .text	00000000000000c0 __vsnprintf
0000000000013638 g     O .bss	0000000000000010 __elf_phdr_info
0000000000003d78 g     F .text	0000000000000028 TEE_FreePersistentObjectEnumerator
0000000000001fe8 g     F .text	0000000000000154 TEE_OpenTASession
00000000000016ec g     F .text	0000000000000028 trace_ext_puts
0000000000007c54 g     F .text	0000000000000098 __GP11_TEE_GetPropertyAsString
000000000000e0c0 g     F .text	0000000000000150 raw_malloc_buffer_is_within_alloced
0000000000001714 g     F .text	0000000000000008 trace_ext_get_thread_id
000000000000e040 g     F .text	0000000000000080 raw_malloc_buffer_overlaps_heap
0000000000003c58 g     F .text	000000000000002c TEE_CloseAndDeletePersistentObject
00000000000053fc g     F .text	000000000000000c _utee_cryp_derive_key
00000000000093e8 g     F .text	000000000000006c mbedtls_mpi_free
00000000000053d8 g     F .text	000000000000000c _utee_cryp_obj_reset
0000000000002974 g     F .text	0000000000000008 TEE_CacheClean
00000000000052ac g     F .text	000000000000000c _utee_get_property_name_to_index
000000000000dd6c g     F .text	0000000000000050 raw_calloc
000000000000899c g     F .text	000000000000011c _base64_enc
000000000000d0bc g     F .text	00000000000000fc mbedtls_mpi_safe_cond_swap
0000000000005414 g     F .text	000000000000000c _utee_authenc_init
0000000000003630 g     F .text	00000000000000f8 TEE_CopyObjectAttributes1
0000000000003ce0 g     F .text	0000000000000008 __GP11_TEE_RenamePersistentObject
00000000000016d0 g     F .text	000000000000001c strlen
00000000000070f8 g     F .text	0000000000000268 TEE_BigIntComputeExtendedGcd
0000000000005498 g     F .text	000000000000000c _utee_storage_alloc_enum
0000000000006f24 g     F .text	00000000000001d4 TEE_BigIntExpMod
00000000000025c4 g     F .text	0000000000000028 TEE_GetSystemTime
000000000000545c g     F .text	000000000000000c _utee_asymm_verify
0000000000000000 g     O .ta_head	0000000000000020 ta_head
000000000000d8d4 g     F .text	0000000000000284 brel
00000000000051b0 g     F .text	00000000000000c0 __ta_invoke_cmd
0000000000007f94 g     F .text	00000000000000ec __GP11_TEE_GetPropertyAsBinaryBlock
000000000000a154 g     F .text	000000000000015c mbedtls_mpi_sub_abs
000000000000bbf0 g     F .text	0000000000000068 mbedtls_mpi_fill_random
00000000000030ec g     F .text	00000000000000b4 __GP11_TEE_AllocateTransientObject
0000000000005104 g     F .text	00000000000000ac __ta_open_sess
0000000000002588 g     F .text	000000000000000c TEE_SetInstanceData
00000000000052dc g     F .text	000000000000000c _utee_get_cancellation_flag
000000000000b004 g     F .text	0000000000000270 mbedtls_mpi_write_string
000000000000df0c g     F .text	0000000000000018 aligned_alloc
0000000000003e18 g     F .text	000000000000011c TEE_GetNextPersistentObject
00000000000073fc g     F .text	0000000000000008 TEE_BigIntInitFMMContext1
0000000000004238 g     F .text	0000000000000008 __GP11_TEE_WriteObjectData
0000000000001c7c g     F .text	0000000000000028 TEE_CloseTASession
0000000000005474 g     F .text	000000000000000c _utee_storage_obj_create
0000000000007414 g     F .text	0000000000000018 __GP11_TEE_BigIntFMMSizeInU32
000000000000df24 g     F .text	0000000000000010 free
0000000000017658 g     O .bss	0000000000000008 mbedtls_mpi_mempool
000000000000536c g     F .text	000000000000000c _utee_hash_final



Disassembly of section .text:

0000000000000020 <memcpy>:
memcpy():
/home/neu/Desktop/OPTEE/source/public/optee_src/optee/optee_os/lib/libutils/isoc/newlib/memcpy.c:106
      20:	f1007c5f 	cmp	x2, #0x1f
      24:	54000629 	b.ls	e8 <memcpy+0xc8>  // b.plast
/home/neu/Desktop/OPTEE/source/public/optee_src/optee/optee_os/lib/libutils/isoc/newlib/memcpy.c:106 (discriminator 1)
      28:	aa000025 	orr	x5, x1, x0
      2c:	f24008a5 	ands	x5, x5, #0x7
      30:	54000641 	b.ne	f8 <memcpy+0xd8>  // b.any
      34:	d1008048 	sub	x8, x2, #0x20
/home/neu/Desktop/OPTEE/source/public/optee_src/optee/optee_os/lib/libutils/isoc/newlib/memcpy.c:108
      38:	aa0103e4 	mov	x4, x1
      3c:	927be908 	and	x8, x8, #0xffffffffffffffe0
/home/neu/Desktop/OPTEE/source/public/optee_src/optee/optee_os/lib/libutils/isoc/newlib/memcpy.c:107
      40:	aa0003e3 	mov	x3, x0
      44:	91008108 	add	x8, x8, #0x20
      48:	8b080007 	add	x7, x0, x8
      4c:	d503201f 	nop
/home/neu/Desktop/OPTEE/source/public/optee_src/optee/optee_os/lib/libutils/isoc/newlib/memcpy.c:112
      50:	f9400086 	ldr	x6, [x4]
      54:	f9000066 	str	x6, [x3]
/home/neu/Desktop/OPTEE/source/public/optee_src/optee/optee_os/lib/libutils/isoc/newlib/memcpy.c:113
      58:	91008084 	add	x4, x4, #0x20
      5c:	91008063 	add	x3, x3, #0x20
      60:	f85e8086 	ldur	x6, [x4, #-24]
      64:	f81e8066 	stur	x6, [x3, #-24]
/home/neu/Desktop/OPTEE/source/public/optee_src/optee/optee_os/lib/libutils/isoc/newlib/memcpy.c:114
      68:	f85f0086 	ldur	x6, [x4, #-16]
      6c:	f81f0066 	stur	x6, [x3, #-16]
/home/neu/Desktop/OPTEE/source/public/optee_src/optee/optee_os/lib/libutils/isoc/newlib/memcpy.c:111
      70:	eb0300ff 	cmp	x7, x3
/home/neu/Desktop/OPTEE/source/public/optee_src/optee/optee_os/lib/libutils/isoc/newlib/memcpy.c:115
      74:	f85f8086 	ldur	x6, [x4, #-8]
      78:	f81f8066 	stur	x6, [x3, #-8]
/home/neu/Desktop/OPTEE/source/public/optee_src/optee/optee_os/lib/libutils/isoc/newlib/memcpy.c:111
      7c:	54fffea1 	b.ne	50 <memcpy+0x30>  // b.any
      80:	8b080021 	add	x1, x1, x8
/home/neu/Desktop/OPTEE/source/public/optee_src/optee/optee_os/lib/libutils/isoc/newlib/memcpy.c:120
      84:	f27d045f 	tst	x2, #0x18
      88:	92401044 	and	x4, x2, #0x1f
      8c:	540003c0 	b.eq	104 <memcpy+0xe4>  // b.none
/home/neu/Desktop/OPTEE/source/public/optee_src/optee/optee_os/lib/libutils/isoc/newlib/memcpy.c:121
      90:	f8656826 	ldr	x6, [x1, x5]
      94:	f8256866 	str	x6, [x3, x5]
/home/neu/Desktop/OPTEE/source/public/optee_src/optee/optee_os/lib/libutils/isoc/newlib/memcpy.c:120
      98:	910020a5 	add	x5, x5, #0x8
      9c:	cb050086 	sub	x6, x4, x5
      a0:	f1001cdf 	cmp	x6, #0x7
      a4:	54ffff68 	b.hi	90 <memcpy+0x70>  // b.pmore
      a8:	d1002084 	sub	x4, x4, #0x8
      ac:	92400842 	and	x2, x2, #0x7
      b0:	927df084 	and	x4, x4, #0xfffffffffffffff8
/home/neu/Desktop/OPTEE/source/public/optee_src/optee/optee_os/lib/libutils/isoc/newlib/memcpy.c:130
      b4:	d1000446 	sub	x6, x2, #0x1
      b8:	91002084 	add	x4, x4, #0x8
      bc:	8b040063 	add	x3, x3, x4
      c0:	8b040021 	add	x1, x1, x4
      c4:	b4000102 	cbz	x2, e4 <memcpy+0xc4>
/home/neu/Desktop/OPTEE/source/public/optee_src/optee/optee_os/lib/libutils/isoc/newlib/memcpy.c:99
      c8:	d2800002 	mov	x2, #0x0                   	// #0
      cc:	d503201f 	nop
/home/neu/Desktop/OPTEE/source/public/optee_src/optee/optee_os/lib/libutils/isoc/newlib/memcpy.c:131
      d0:	38626825 	ldrb	w5, [x1, x2]
/home/neu/Desktop/OPTEE/source/public/optee_src/optee/optee_os/lib/libutils/isoc/newlib/memcpy.c:130
      d4:	eb0200df 	cmp	x6, x2
/home/neu/Desktop/OPTEE/source/public/optee_src/optee/optee_os/lib/libutils/isoc/newlib/memcpy.c:131
      d8:	38226865 	strb	w5, [x3, x2]
/home/neu/Desktop/OPTEE/source/public/optee_src/optee/optee_os/lib/libutils/isoc/newlib/memcpy.c:130
      dc:	91000442 	add	x2, x2, #0x1
      e0:	54ffff81 	b.ne	d0 <memcpy+0xb0>  // b.any
/home/neu/Desktop/OPTEE/source/public/optee_src/optee/optee_os/lib/libutils/isoc/newlib/memcpy.c:135
      e4:	d65f03c0 	ret
/home/neu/Desktop/OPTEE/source/public/optee_src/optee/optee_os/lib/libutils/isoc/newlib/memcpy.c:99
      e8:	aa0003e3 	mov	x3, x0
/home/neu/Desktop/OPTEE/source/public/optee_src/optee/optee_os/lib/libutils/isoc/newlib/memcpy.c:130
      ec:	d1000446 	sub	x6, x2, #0x1
      f0:	b5fffec2 	cbnz	x2, c8 <memcpy+0xa8>
/home/neu/Desktop/OPTEE/source/public/optee_src/optee/optee_os/lib/libutils/isoc/newlib/memcpy.c:135
      f4:	d65f03c0 	ret
/home/neu/Desktop/OPTEE/source/public/optee_src/optee/optee_os/lib/libutils/isoc/newlib/memcpy.c:130
      f8:	d1000446 	sub	x6, x2, #0x1
/home/neu/Desktop/OPTEE/source/public/optee_src/optee/optee_os/lib/libutils/isoc/newlib/memcpy.c:99
      fc:	aa0003e3 	mov	x3, x0
     100:	17fffff2 	b	c8 <memcpy+0xa8>
/home/neu/Desktop/OPTEE/source/public/optee_src/optee/optee_os/lib/libutils/isoc/newlib/memcpy.c:120
     104:	aa0403e2 	mov	x2, x4
     108:	17fffff9 	b	ec <memcpy+0xcc>

000000000000010c <TA_CreateEntryPoint>:
TA_CreateEntryPoint():
/home/neu/Desktop/optee_examples/secure_storage/ta/secure_storage_ta.c:250
     10c:	52800000 	mov	w0, #0x0                   	// #0
     110:	d65f03c0 	ret

0000000000000114 <TA_DestroyEntryPoint>:
TA_DestroyEntryPoint():
/home/neu/Desktop/optee_examples/secure_storage/ta/secure_storage_ta.c:255
     114:	d65f03c0 	ret

0000000000000118 <__GP11_TA_OpenSessionEntryPoint>:
__GP11_TA_OpenSessionEntryPoint():
/home/neu/Desktop/optee_examples/secure_storage/ta/secure_storage_ta.c:263
     118:	52800000 	mov	w0, #0x0                   	// #0
     11c:	d65f03c0 	ret

0000000000000120 <TA_CloseSessionEntryPoint>:
TA_CloseSessionEntryPoint():
/home/neu/Desktop/optee_examples/secure_storage/ta/secure_storage_ta.c:268
     120:	d65f03c0 	ret

0000000000000124 <__GP11_TA_InvokeCommandEntryPoint>:
__GP11_TA_InvokeCommandEntryPoint():
/home/neu/Desktop/optee_examples/secure_storage/ta/secure_storage_ta.c:274
     124:	a9b77bfd 	stp	x29, x30, [sp, #-144]!
     128:	f0000080 	adrp	x0, 13000 <_DYNAMIC>
/home/neu/Desktop/optee_examples/secure_storage/ta/secure_storage_ta.c:275
     12c:	b0000084 	adrp	x4, 11000 <__text_end+0x2998>
/home/neu/Desktop/optee_examples/secure_storage/ta/secure_storage_ta.c:274
     130:	910003fd 	mov	x29, sp
     134:	f9409800 	ldr	x0, [x0, #304]
     138:	a90153f3 	stp	x19, x20, [sp, #16]
     13c:	2a0103f4 	mov	w20, w1
     140:	f9400001 	ldr	x1, [x0]
     144:	f90047e1 	str	x1, [sp, #136]
     148:	d2800001 	mov	x1, #0x0                   	// #0
     14c:	a9025bf5 	stp	x21, x22, [sp, #32]
     150:	2a0203f3 	mov	w19, w2
     154:	a90363f7 	stp	x23, x24, [sp, #48]
/home/neu/Desktop/optee_examples/secure_storage/ta/secure_storage_ta.c:275
     158:	b0000098 	adrp	x24, 11000 <__text_end+0x2998>
     15c:	91310b15 	add	x21, x24, #0xc42
/home/neu/Desktop/optee_examples/secure_storage/ta/secure_storage_ta.c:274
     160:	aa0303f6 	mov	x22, x3
/home/neu/Desktop/optee_examples/secure_storage/ta/secure_storage_ta.c:275
     164:	912cb084 	add	x4, x4, #0xb2c
     168:	aa1503e0 	mov	x0, x21
     16c:	52800023 	mov	w3, #0x1                   	// #1
     170:	52800042 	mov	w2, #0x2                   	// #2
     174:	52802261 	mov	w1, #0x113                 	// #275
/home/neu/Desktop/optee_examples/secure_storage/ta/secure_storage_ta.c:274
     178:	a9046bf9 	stp	x25, x26, [sp, #64]
/home/neu/Desktop/optee_examples/secure_storage/ta/secure_storage_ta.c:275
     17c:	9400018d 	bl	7b0 <trace_printf>
/home/neu/Desktop/optee_examples/secure_storage/ta/secure_storage_ta.c:276
     180:	7100069f 	cmp	w20, #0x1
     184:	54000560 	b.eq	230 <__GP11_TA_InvokeCommandEntryPoint+0x10c>  // b.none
     188:	71000a9f 	cmp	w20, #0x2
     18c:	54001580 	b.eq	43c <__GP11_TA_InvokeCommandEntryPoint+0x318>  // b.none
     190:	35001994 	cbnz	w20, 4c0 <__GP11_TA_InvokeCommandEntryPoint+0x39c>
read_raw_object():
/home/neu/Desktop/optee_examples/secure_storage/ta/secure_storage_ta.c:178
     194:	7101967f 	cmp	w19, #0x65
     198:	54001901 	b.ne	4b8 <__GP11_TA_InvokeCommandEntryPoint+0x394>  // b.any
/home/neu/Desktop/optee_examples/secure_storage/ta/secure_storage_ta.c:181
     19c:	b9400ad3 	ldr	w19, [x22, #8]
/home/neu/Desktop/optee_examples/secure_storage/ta/secure_storage_ta.c:182
     1a0:	52800001 	mov	w1, #0x0                   	// #0
     1a4:	2a1303e0 	mov	w0, w19
     1a8:	940009a1 	bl	282c <__GP11_TEE_Malloc>
     1ac:	aa0003f7 	mov	x23, x0
/home/neu/Desktop/optee_examples/secure_storage/ta/secure_storage_ta.c:183
     1b0:	b4000500 	cbz	x0, 250 <__GP11_TA_InvokeCommandEntryPoint+0x12c>
/home/neu/Desktop/optee_examples/secure_storage/ta/secure_storage_ta.c:186
     1b4:	aa1603f9 	mov	x25, x22
     1b8:	2a1303e2 	mov	w2, w19
     1bc:	f8410721 	ldr	x1, [x25], #16
     1c0:	940008f9 	bl	25a4 <__GP11_TEE_MemMove>
/home/neu/Desktop/optee_examples/secure_storage/ta/secure_storage_ta.c:188
     1c4:	b9400b3a 	ldr	w26, [x25, #8]
/home/neu/Desktop/optee_examples/secure_storage/ta/secure_storage_ta.c:189
     1c8:	52800001 	mov	w1, #0x0                   	// #0
     1cc:	2a1a03e0 	mov	w0, w26
     1d0:	94000997 	bl	282c <__GP11_TEE_Malloc>
     1d4:	aa0003f4 	mov	x20, x0
/home/neu/Desktop/optee_examples/secure_storage/ta/secure_storage_ta.c:190
     1d8:	b40003c0 	cbz	x0, 250 <__GP11_TA_InvokeCommandEntryPoint+0x12c>
/home/neu/Desktop/optee_examples/secure_storage/ta/secure_storage_ta.c:197
     1dc:	2a1303e2 	mov	w2, w19
     1e0:	910183e4 	add	x4, sp, #0x60
     1e4:	aa1703e1 	mov	x1, x23
     1e8:	52800223 	mov	w3, #0x11                  	// #17
     1ec:	52800020 	mov	w0, #0x1                   	// #1
     1f0:	9100d2b5 	add	x21, x21, #0x34
     1f4:	94000e15 	bl	3a48 <__GP11_TEE_OpenPersistentObject>
     1f8:	2a0003f3 	mov	w19, w0
/home/neu/Desktop/optee_examples/secure_storage/ta/secure_storage_ta.c:202
     1fc:	34000ae0 	cbz	w0, 358 <__GP11_TA_InvokeCommandEntryPoint+0x234>
/home/neu/Desktop/optee_examples/secure_storage/ta/secure_storage_ta.c:203
     200:	2a0003e5 	mov	w5, w0
     204:	b0000084 	adrp	x4, 11000 <__text_end+0x2998>
     208:	aa1503e0 	mov	x0, x21
     20c:	912e1c84 	add	x4, x4, #0xb87
     210:	52800023 	mov	w3, #0x1                   	// #1
     214:	52800022 	mov	w2, #0x1                   	// #1
     218:	52801961 	mov	w1, #0xcb                  	// #203
     21c:	94000165 	bl	7b0 <trace_printf>
/home/neu/Desktop/optee_examples/secure_storage/ta/secure_storage_ta.c:241
     220:	aa1703e0 	mov	x0, x23
     224:	94000984 	bl	2834 <TEE_Free>
delete_object():
/home/neu/Desktop/optee_examples/secure_storage/ta/secure_storage_ta.c:74
     228:	aa1403e0 	mov	x0, x20
     22c:	1400002e 	b	2e4 <__GP11_TA_InvokeCommandEntryPoint+0x1c0>
create_raw_object():
/home/neu/Desktop/optee_examples/secure_storage/ta/secure_storage_ta.c:97
     230:	7101567f 	cmp	w19, #0x55
     234:	54001421 	b.ne	4b8 <__GP11_TA_InvokeCommandEntryPoint+0x394>  // b.any
/home/neu/Desktop/optee_examples/secure_storage/ta/secure_storage_ta.c:100
     238:	b9400ad3 	ldr	w19, [x22, #8]
/home/neu/Desktop/optee_examples/secure_storage/ta/secure_storage_ta.c:101
     23c:	52800001 	mov	w1, #0x0                   	// #0
     240:	2a1303e0 	mov	w0, w19
     244:	9400097a 	bl	282c <__GP11_TEE_Malloc>
     248:	aa0003f8 	mov	x24, x0
/home/neu/Desktop/optee_examples/secure_storage/ta/secure_storage_ta.c:102
     24c:	b5000060 	cbnz	x0, 258 <__GP11_TA_InvokeCommandEntryPoint+0x134>
delete_object():
/home/neu/Desktop/optee_examples/secure_storage/ta/secure_storage_ta.c:55
     250:	129ffe73 	mov	w19, #0xffff000c            	// #-65524
__GP11_TA_InvokeCommandEntryPoint():
/home/neu/Desktop/optee_examples/secure_storage/ta/secure_storage_ta.c:282
     254:	14000025 	b	2e8 <__GP11_TA_InvokeCommandEntryPoint+0x1c4>
create_raw_object():
/home/neu/Desktop/optee_examples/secure_storage/ta/secure_storage_ta.c:105
     258:	aa1603f7 	mov	x23, x22
     25c:	2a1303e2 	mov	w2, w19
     260:	f84106e1 	ldr	x1, [x23], #16
     264:	940008d0 	bl	25a4 <__GP11_TEE_MemMove>
/home/neu/Desktop/optee_examples/secure_storage/ta/secure_storage_ta.c:107
     268:	b9400af9 	ldr	w25, [x23, #8]
/home/neu/Desktop/optee_examples/secure_storage/ta/secure_storage_ta.c:108
     26c:	52800001 	mov	w1, #0x0                   	// #0
     270:	2a1903e0 	mov	w0, w25
     274:	9400096e 	bl	282c <__GP11_TEE_Malloc>
     278:	aa0003f7 	mov	x23, x0
/home/neu/Desktop/optee_examples/secure_storage/ta/secure_storage_ta.c:109
     27c:	b4fffea0 	cbz	x0, 250 <__GP11_TA_InvokeCommandEntryPoint+0x12c>
/home/neu/Desktop/optee_examples/secure_storage/ta/secure_storage_ta.c:111
     280:	f9400ac1 	ldr	x1, [x22, #16]
     284:	2a1903e2 	mov	w2, w25
     288:	940008c7 	bl	25a4 <__GP11_TEE_MemMove>
/home/neu/Desktop/optee_examples/secure_storage/ta/secure_storage_ta.c:125
     28c:	2a1303e2 	mov	w2, w19
     290:	9101a3e7 	add	x7, sp, #0x68
     294:	aa1803e1 	mov	x1, x24
     298:	2a1403e0 	mov	w0, w20
     29c:	52800006 	mov	w6, #0x0                   	// #0
     2a0:	d2800005 	mov	x5, #0x0                   	// #0
     2a4:	d2800004 	mov	x4, #0x0                   	// #0
     2a8:	528080e3 	mov	w3, #0x407                 	// #1031
     2ac:	94000e3a 	bl	3b94 <__GP11_TEE_CreatePersistentObject>
     2b0:	2a0003f3 	mov	w19, w0
/home/neu/Desktop/optee_examples/secure_storage/ta/secure_storage_ta.c:131
     2b4:	340002a0 	cbz	w0, 308 <__GP11_TA_InvokeCommandEntryPoint+0x1e4>
/home/neu/Desktop/optee_examples/secure_storage/ta/secure_storage_ta.c:132
     2b8:	2a0003e5 	mov	w5, w0
     2bc:	b0000084 	adrp	x4, 11000 <__text_end+0x2998>
     2c0:	2a1403e3 	mov	w3, w20
     2c4:	912cf084 	add	x4, x4, #0xb3c
     2c8:	2a1403e2 	mov	w2, w20
     2cc:	91008aa0 	add	x0, x21, #0x22
     2d0:	52801081 	mov	w1, #0x84                  	// #132
     2d4:	94000137 	bl	7b0 <trace_printf>
/home/neu/Desktop/optee_examples/secure_storage/ta/secure_storage_ta.c:154
     2d8:	aa1803e0 	mov	x0, x24
     2dc:	94000956 	bl	2834 <TEE_Free>
/home/neu/Desktop/optee_examples/secure_storage/ta/secure_storage_ta.c:155
     2e0:	aa1703e0 	mov	x0, x23
delete_object():
/home/neu/Desktop/optee_examples/secure_storage/ta/secure_storage_ta.c:74
     2e4:	94000954 	bl	2834 <TEE_Free>
__GP11_TA_InvokeCommandEntryPoint():
/home/neu/Desktop/optee_examples/secure_storage/ta/secure_storage_ta.c:287
     2e8:	f0000080 	adrp	x0, 13000 <_DYNAMIC>
     2ec:	f9409800 	ldr	x0, [x0, #304]
     2f0:	f94047e1 	ldr	x1, [sp, #136]
     2f4:	f9400002 	ldr	x2, [x0]
     2f8:	eb020021 	subs	x1, x1, x2
     2fc:	d2800002 	mov	x2, #0x0                   	// #0
     300:	54000f40 	b.eq	4e8 <__GP11_TA_InvokeCommandEntryPoint+0x3c4>  // b.none
     304:	9400008d 	bl	538 <__stack_chk_fail>
create_raw_object():
/home/neu/Desktop/optee_examples/secure_storage/ta/secure_storage_ta.c:142
     308:	f94037e0 	ldr	x0, [sp, #104]
     30c:	2a1903e2 	mov	w2, w25
     310:	aa1703e1 	mov	x1, x23
     314:	94000fc9 	bl	4238 <__GP11_TEE_WriteObjectData>
     318:	2a0003f3 	mov	w19, w0
/home/neu/Desktop/optee_examples/secure_storage/ta/secure_storage_ta.c:143
     31c:	34000180 	cbz	w0, 34c <__GP11_TA_InvokeCommandEntryPoint+0x228>
/home/neu/Desktop/optee_examples/secure_storage/ta/secure_storage_ta.c:144
     320:	2a0003e5 	mov	w5, w0
     324:	2a1403e3 	mov	w3, w20
     328:	91008aa0 	add	x0, x21, #0x22
     32c:	2a1403e2 	mov	w2, w20
     330:	52801201 	mov	w1, #0x90                  	// #144
     334:	b0000084 	adrp	x4, 11000 <__text_end+0x2998>
     338:	912d9484 	add	x4, x4, #0xb65
     33c:	9400011d 	bl	7b0 <trace_printf>
/home/neu/Desktop/optee_examples/secure_storage/ta/secure_storage_ta.c:145
     340:	f94037e0 	ldr	x0, [sp, #104]
     344:	94000e33 	bl	3c10 <TEE_CloseAndDeletePersistentObject1>
     348:	17ffffe4 	b	2d8 <__GP11_TA_InvokeCommandEntryPoint+0x1b4>
/home/neu/Desktop/optee_examples/secure_storage/ta/secure_storage_ta.c:147
     34c:	f94037e0 	ldr	x0, [sp, #104]
     350:	94000b5d 	bl	30c4 <TEE_CloseObject>
     354:	17ffffe1 	b	2d8 <__GP11_TA_InvokeCommandEntryPoint+0x1b4>
read_raw_object():
/home/neu/Desktop/optee_examples/secure_storage/ta/secure_storage_ta.c:209
     358:	aa1503e0 	mov	x0, x21
     35c:	52800023 	mov	w3, #0x1                   	// #1
     360:	52800042 	mov	w2, #0x2                   	// #2
     364:	52801a21 	mov	w1, #0xd1                  	// #209
     368:	b0000084 	adrp	x4, 11000 <__text_end+0x2998>
     36c:	912ed084 	add	x4, x4, #0xbb4
     370:	94000110 	bl	7b0 <trace_printf>
/home/neu/Desktop/optee_examples/secure_storage/ta/secure_storage_ta.c:211
     374:	f94033e0 	ldr	x0, [sp, #96]
     378:	9101a3e1 	add	x1, sp, #0x68
     37c:	94000a38 	bl	2c5c <__GP11_TEE_GetObjectInfo1>
     380:	2a0003f3 	mov	w19, w0
/home/neu/Desktop/optee_examples/secure_storage/ta/secure_storage_ta.c:212
     384:	34000180 	cbz	w0, 3b4 <__GP11_TA_InvokeCommandEntryPoint+0x290>
/home/neu/Desktop/optee_examples/secure_storage/ta/secure_storage_ta.c:213
     388:	2a0003e5 	mov	w5, w0
     38c:	b0000084 	adrp	x4, 11000 <__text_end+0x2998>
     390:	aa1503e0 	mov	x0, x21
     394:	912f0084 	add	x4, x4, #0xbc0
     398:	52800023 	mov	w3, #0x1                   	// #1
     39c:	52800022 	mov	w2, #0x1                   	// #1
     3a0:	52801aa1 	mov	w1, #0xd5                  	// #213
     3a4:	94000103 	bl	7b0 <trace_printf>
/home/neu/Desktop/optee_examples/secure_storage/ta/secure_storage_ta.c:240
     3a8:	f94033e0 	ldr	x0, [sp, #96]
     3ac:	94000b46 	bl	30c4 <TEE_CloseObject>
     3b0:	17ffff9c 	b	220 <__GP11_TA_InvokeCommandEntryPoint+0xfc>
/home/neu/Desktop/optee_examples/secure_storage/ta/secure_storage_ta.c:217
     3b4:	b9407be2 	ldr	w2, [sp, #120]
     3b8:	6b02035f 	cmp	w26, w2
     3bc:	54000082 	b.cs	3cc <__GP11_TA_InvokeCommandEntryPoint+0x2a8>  // b.hs, b.nlast
/home/neu/Desktop/optee_examples/secure_storage/ta/secure_storage_ta.c:223
     3c0:	129ffdf3 	mov	w19, #0xffff0010            	// #-65520
/home/neu/Desktop/optee_examples/secure_storage/ta/secure_storage_ta.c:222
     3c4:	b9000b22 	str	w2, [x25, #8]
/home/neu/Desktop/optee_examples/secure_storage/ta/secure_storage_ta.c:224
     3c8:	17fffff8 	b	3a8 <__GP11_TA_InvokeCommandEntryPoint+0x284>
/home/neu/Desktop/optee_examples/secure_storage/ta/secure_storage_ta.c:227
     3cc:	f94033e0 	ldr	x0, [sp, #96]
     3d0:	910173e3 	add	x3, sp, #0x5c
     3d4:	aa1403e1 	mov	x1, x20
     3d8:	94000f54 	bl	4128 <__GP11_TEE_ReadObjectData>
     3dc:	2a0003f3 	mov	w19, w0
/home/neu/Desktop/optee_examples/secure_storage/ta/secure_storage_ta.c:229
     3e0:	340001a0 	cbz	w0, 414 <__GP11_TA_InvokeCommandEntryPoint+0x2f0>
/home/neu/Desktop/optee_examples/secure_storage/ta/secure_storage_ta.c:232
     3e4:	b9405fe6 	ldr	w6, [sp, #92]
     3e8:	91310b00 	add	x0, x24, #0xc42
     3ec:	b9407be7 	ldr	w7, [sp, #120]
     3f0:	2a1303e5 	mov	w5, w19
     3f4:	9100d000 	add	x0, x0, #0x34
     3f8:	b0000084 	adrp	x4, 11000 <__text_end+0x2998>
     3fc:	52800023 	mov	w3, #0x1                   	// #1
     400:	912fbc84 	add	x4, x4, #0xbef
     404:	52800022 	mov	w2, #0x1                   	// #1
     408:	52801d01 	mov	w1, #0xe8                  	// #232
     40c:	940000e9 	bl	7b0 <trace_printf>
/home/neu/Desktop/optee_examples/secure_storage/ta/secure_storage_ta.c:234
     410:	17ffffe6 	b	3a8 <__GP11_TA_InvokeCommandEntryPoint+0x284>
/home/neu/Desktop/optee_examples/secure_storage/ta/secure_storage_ta.c:230
     414:	b9405fe2 	ldr	w2, [sp, #92]
     418:	aa1403e1 	mov	x1, x20
     41c:	f9400ac0 	ldr	x0, [x22, #16]
     420:	94000861 	bl	25a4 <__GP11_TEE_MemMove>
/home/neu/Desktop/optee_examples/secure_storage/ta/secure_storage_ta.c:231
     424:	b9405fe1 	ldr	w1, [sp, #92]
     428:	b9407be0 	ldr	w0, [sp, #120]
     42c:	6b01001f 	cmp	w0, w1
     430:	54fffda1 	b.ne	3e4 <__GP11_TA_InvokeCommandEntryPoint+0x2c0>  // b.any
/home/neu/Desktop/optee_examples/secure_storage/ta/secure_storage_ta.c:238
     434:	b9000b20 	str	w0, [x25, #8]
     438:	17ffffdc 	b	3a8 <__GP11_TA_InvokeCommandEntryPoint+0x284>
delete_object():
/home/neu/Desktop/optee_examples/secure_storage/ta/secure_storage_ta.c:49
     43c:	7100167f 	cmp	w19, #0x5
     440:	540003c1 	b.ne	4b8 <__GP11_TA_InvokeCommandEntryPoint+0x394>  // b.any
/home/neu/Desktop/optee_examples/secure_storage/ta/secure_storage_ta.c:52
     444:	b9400ad7 	ldr	w23, [x22, #8]
/home/neu/Desktop/optee_examples/secure_storage/ta/secure_storage_ta.c:53
     448:	52800001 	mov	w1, #0x0                   	// #0
     44c:	2a1703e0 	mov	w0, w23
     450:	940008f7 	bl	282c <__GP11_TEE_Malloc>
     454:	aa0003f4 	mov	x20, x0
/home/neu/Desktop/optee_examples/secure_storage/ta/secure_storage_ta.c:54
     458:	b4ffefc0 	cbz	x0, 250 <__GP11_TA_InvokeCommandEntryPoint+0x12c>
/home/neu/Desktop/optee_examples/secure_storage/ta/secure_storage_ta.c:57
     45c:	f94002c1 	ldr	x1, [x22]
     460:	2a1703e2 	mov	w2, w23
     464:	94000850 	bl	25a4 <__GP11_TEE_MemMove>
/home/neu/Desktop/optee_examples/secure_storage/ta/secure_storage_ta.c:62
     468:	2a1303e3 	mov	w3, w19
     46c:	9101a3e4 	add	x4, sp, #0x68
     470:	2a1703e2 	mov	w2, w23
     474:	aa1403e1 	mov	x1, x20
     478:	52800020 	mov	w0, #0x1                   	// #1
     47c:	94000d73 	bl	3a48 <__GP11_TEE_OpenPersistentObject>
     480:	2a0003f3 	mov	w19, w0
/home/neu/Desktop/optee_examples/secure_storage/ta/secure_storage_ta.c:67
     484:	34000140 	cbz	w0, 4ac <__GP11_TA_InvokeCommandEntryPoint+0x388>
/home/neu/Desktop/optee_examples/secure_storage/ta/secure_storage_ta.c:68
     488:	2a0003e5 	mov	w5, w0
     48c:	b0000084 	adrp	x4, 11000 <__text_end+0x2998>
     490:	910112a0 	add	x0, x21, #0x44
     494:	912e1c84 	add	x4, x4, #0xb87
     498:	52800023 	mov	w3, #0x1                   	// #1
     49c:	52800022 	mov	w2, #0x1                   	// #1
     4a0:	52800881 	mov	w1, #0x44                  	// #68
     4a4:	940000c3 	bl	7b0 <trace_printf>
/home/neu/Desktop/optee_examples/secure_storage/ta/secure_storage_ta.c:69
     4a8:	17ffff60 	b	228 <__GP11_TA_InvokeCommandEntryPoint+0x104>
/home/neu/Desktop/optee_examples/secure_storage/ta/secure_storage_ta.c:73
     4ac:	f94037e0 	ldr	x0, [sp, #104]
     4b0:	94000dd8 	bl	3c10 <TEE_CloseAndDeletePersistentObject1>
     4b4:	17ffff5d 	b	228 <__GP11_TA_InvokeCommandEntryPoint+0x104>
/home/neu/Desktop/optee_examples/secure_storage/ta/secure_storage_ta.c:50
     4b8:	129fff33 	mov	w19, #0xffff0006            	// #-65530
     4bc:	17ffff8b 	b	2e8 <__GP11_TA_InvokeCommandEntryPoint+0x1c4>
__GP11_TA_InvokeCommandEntryPoint():
/home/neu/Desktop/optee_examples/secure_storage/ta/secure_storage_ta.c:284
     4c0:	2a1403e5 	mov	w5, w20
     4c4:	aa1503e0 	mov	x0, x21
     4c8:	b0000084 	adrp	x4, 11000 <__text_end+0x2998>
     4cc:	52800023 	mov	w3, #0x1                   	// #1
     4d0:	91308484 	add	x4, x4, #0xc21
     4d4:	52800022 	mov	w2, #0x1                   	// #1
     4d8:	52802381 	mov	w1, #0x11c                 	// #284
/home/neu/Desktop/optee_examples/secure_storage/ta/secure_storage_ta.c:285
     4dc:	129ffeb3 	mov	w19, #0xffff000a            	// #-65526
/home/neu/Desktop/optee_examples/secure_storage/ta/secure_storage_ta.c:284
     4e0:	940000b4 	bl	7b0 <trace_printf>
/home/neu/Desktop/optee_examples/secure_storage/ta/secure_storage_ta.c:285
     4e4:	17ffff81 	b	2e8 <__GP11_TA_InvokeCommandEntryPoint+0x1c4>
/home/neu/Desktop/optee_examples/secure_storage/ta/secure_storage_ta.c:287
     4e8:	2a1303e0 	mov	w0, w19
     4ec:	a94153f3 	ldp	x19, x20, [sp, #16]
     4f0:	a9425bf5 	ldp	x21, x22, [sp, #32]
     4f4:	a94363f7 	ldp	x23, x24, [sp, #48]
     4f8:	a9446bf9 	ldp	x25, x26, [sp, #64]
     4fc:	a8c97bfd 	ldp	x29, x30, [sp], #144
     500:	d65f03c0 	ret

0000000000000504 <__ta_entry>:
__ta_entry():
/home/neu/Desktop/export-ta_arm64/src/user_ta_header.c:51
     504:	a9bf7bfd 	stp	x29, x30, [sp, #-16]!
     508:	910003fd 	mov	x29, sp
/home/neu/Desktop/export-ta_arm64/src/user_ta_header.c:70
     50c:	9400122a 	bl	4db4 <__utee_entry>
/home/neu/Desktop/export-ta_arm64/src/user_ta_header.c:81
     510:	2a0003e0 	mov	w0, w0
     514:	9400135a 	bl	527c <_utee_return>

0000000000000518 <tahead_get_trace_level>:
tahead_get_trace_level():
/home/neu/Desktop/export-ta_arm64/src/user_ta_header.c:193
     518:	52800040 	mov	w0, #0x2                   	// #2
     51c:	d65f03c0 	ret

0000000000000520 <TA_OpenSessionEntryPoint>:
TA_OpenSessionEntryPoint():
/home/neu/Desktop/export-ta_arm64/src/user_ta_header.c:203
     520:	f0000083 	adrp	x3, 13000 <_DYNAMIC>
     524:	f940cc63 	ldr	x3, [x3, #408]
     528:	140012f7 	b	5104 <__ta_open_sess>

000000000000052c <TA_InvokeCommandEntryPoint>:
TA_InvokeCommandEntryPoint():
/home/neu/Desktop/export-ta_arm64/src/user_ta_header.c:211
     52c:	f0000084 	adrp	x4, 13000 <_DYNAMIC>
     530:	f940c084 	ldr	x4, [x4, #384]
     534:	1400131f 	b	51b0 <__ta_invoke_cmd>

0000000000000538 <__stack_chk_fail>:
__stack_chk_fail():
/home/neu/Desktop/OPTEE/source/public/optee_src/optee/optee_os/lib/libutils/isoc/stack_check.c:24
     538:	a9bf7bfd 	stp	x29, x30, [sp, #-16]!
/home/neu/Desktop/OPTEE/source/public/optee_src/optee/optee_os/lib/libutils/isoc/stack_check.c:25
     53c:	b0000084 	adrp	x4, 11000 <__text_end+0x2998>
     540:	91375084 	add	x4, x4, #0xdd4
/home/neu/Desktop/OPTEE/source/public/optee_src/optee/optee_os/lib/libutils/isoc/stack_check.c:24
     544:	910003fd 	mov	x29, sp
/home/neu/Desktop/OPTEE/source/public/optee_src/optee/optee_os/lib/libutils/isoc/stack_check.c:25
     548:	52800023 	mov	w3, #0x1                   	// #1
     54c:	52800022 	mov	w2, #0x1                   	// #1
     550:	52800001 	mov	w1, #0x0                   	// #0
     554:	d2800000 	mov	x0, #0x0                   	// #0
     558:	94000096 	bl	7b0 <trace_printf>
/home/neu/Desktop/OPTEE/source/public/optee_src/optee/optee_os/lib/libutils/isoc/stack_check.c:27 (discriminator 1)
     55c:	1299fe00 	mov	w0, #0xffff300f            	// #-53233
     560:	94001344 	bl	5270 <_utee_panic>
/home/neu/Desktop/OPTEE/source/public/optee_src/optee/optee_os/lib/libutils/isoc/stack_check.c:26 (discriminator 1)
     564:	17fffffe 	b	55c <__stack_chk_fail+0x24>

0000000000000568 <trace_set_level>:
trace_set_level():
/home/neu/Desktop/OPTEE/source/public/optee_src/optee/optee_os/lib/libutils/ext/trace.c:28
     568:	7100141f 	cmp	w0, #0x5
     56c:	52800081 	mov	w1, #0x4                   	// #4
     570:	1a813000 	csel	w0, w0, w1, cc  // cc = lo, ul, last
     574:	f0000081 	adrp	x1, 13000 <_DYNAMIC>
     578:	f940a821 	ldr	x1, [x1, #336]
     57c:	b9000020 	str	w0, [x1]
/home/neu/Desktop/OPTEE/source/public/optee_src/optee/optee_os/lib/libutils/ext/trace.c:29
     580:	d65f03c0 	ret

0000000000000584 <trace_get_level>:
trace_get_level():
/home/neu/Desktop/OPTEE/source/public/optee_src/optee/optee_os/lib/libutils/ext/trace.c:33
     584:	f0000080 	adrp	x0, 13000 <_DYNAMIC>
/home/neu/Desktop/OPTEE/source/public/optee_src/optee/optee_os/lib/libutils/ext/trace.c:34
     588:	f940a800 	ldr	x0, [x0, #336]
     58c:	b9400000 	ldr	w0, [x0]
     590:	d65f03c0 	ret

0000000000000594 <trace_vprintf>:
trace_vprintf():
/home/neu/Desktop/OPTEE/source/public/optee_src/optee/optee_os/lib/libutils/ext/trace.c:113
     594:	a9a77bfd 	stp	x29, x30, [sp, #-400]!
     598:	910003fd 	mov	x29, sp
     59c:	a9046bf9 	stp	x25, x26, [sp, #64]
     5a0:	2a0103f9 	mov	w25, w1
     5a4:	f0000081 	adrp	x1, 13000 <_DYNAMIC>
     5a8:	a9025bf5 	stp	x21, x22, [sp, #32]
     5ac:	aa0003f6 	mov	x22, x0
     5b0:	aa0103f5 	mov	x21, x1
     5b4:	f9409820 	ldr	x0, [x1, #304]
     5b8:	a90153f3 	stp	x19, x20, [sp, #16]
     5bc:	2a0203f3 	mov	w19, w2
     5c0:	f9400002 	ldr	x2, [x0]
     5c4:	f900c7e2 	str	x2, [sp, #392]
     5c8:	d2800002 	mov	x2, #0x0                   	// #0
     5cc:	a90363f7 	stp	x23, x24, [sp, #48]
     5d0:	aa0403f7 	mov	x23, x4
     5d4:	a90573fb 	stp	x27, x28, [sp, #80]
     5d8:	aa0503f8 	mov	x24, x5
/home/neu/Desktop/OPTEE/source/public/optee_src/optee/optee_os/lib/libutils/ext/trace.c:118
     5dc:	72001c7b 	ands	w27, w3, #0xff
     5e0:	54000b20 	b.eq	744 <trace_vprintf+0x1b0>  // b.none
/home/neu/Desktop/OPTEE/source/public/optee_src/optee/optee_os/lib/libutils/ext/trace.c:118 (discriminator 1)
     5e4:	f940a820 	ldr	x0, [x1, #336]
     5e8:	b9400000 	ldr	w0, [x0]
     5ec:	6b13001f 	cmp	w0, w19
     5f0:	540009cb 	b.lt	728 <trace_vprintf+0x194>  // b.tstop
trace_level_to_string():
/home/neu/Desktop/OPTEE/source/public/optee_src/optee/optee_os/lib/libutils/ext/trace.c:51
     5f4:	7100127f 	cmp	w19, #0x4
/home/neu/Desktop/OPTEE/source/public/optee_src/optee/optee_os/lib/libutils/ext/trace.c:54
     5f8:	b0000080 	adrp	x0, 11000 <__text_end+0x2998>
     5fc:	91381800 	add	x0, x0, #0xe06
/home/neu/Desktop/OPTEE/source/public/optee_src/optee/optee_os/lib/libutils/ext/trace.c:51
     600:	1a9f9261 	csel	w1, w19, wzr, ls  // ls = plast
/home/neu/Desktop/OPTEE/source/public/optee_src/optee/optee_os/lib/libutils/ext/trace.c:54
     604:	3861c803 	ldrb	w3, [x0, w1, sxtw]
trace_vprintf():
/home/neu/Desktop/OPTEE/source/public/optee_src/optee/optee_os/lib/libutils/ext/trace.c:122
     608:	910223f4 	add	x20, sp, #0x88
     60c:	b0000082 	adrp	x2, 11000 <__text_end+0x2998>
     610:	9137b042 	add	x2, x2, #0xdec
     614:	aa1403e0 	mov	x0, x20
     618:	d2802001 	mov	x1, #0x100                 	// #256
     61c:	940000e4 	bl	9ac <snprintk>
/home/neu/Desktop/OPTEE/source/public/optee_src/optee/optee_os/lib/libutils/ext/trace.c:124
     620:	37f80840 	tbnz	w0, #31, 728 <trace_vprintf+0x194>
/home/neu/Desktop/OPTEE/source/public/optee_src/optee/optee_os/lib/libutils/ext/trace.c:129
     624:	f940b2a3 	ldr	x3, [x21, #352]
     628:	d280201c 	mov	x28, #0x100                 	// #256
/home/neu/Desktop/OPTEE/source/public/optee_src/optee/optee_os/lib/libutils/ext/trace.c:126
     62c:	93407c1a 	sxtw	x26, w0
/home/neu/Desktop/OPTEE/source/public/optee_src/optee/optee_os/lib/libutils/ext/trace.c:129
     630:	cb20c381 	sub	x1, x28, w0, sxtw
     634:	b0000082 	adrp	x2, 11000 <__text_end+0x2998>
     638:	9137c042 	add	x2, x2, #0xdf0
     63c:	8b20c280 	add	x0, x20, w0, sxtw
     640:	940000db 	bl	9ac <snprintk>
/home/neu/Desktop/OPTEE/source/public/optee_src/optee/optee_os/lib/libutils/ext/trace.c:131
     644:	37f80720 	tbnz	w0, #31, 728 <trace_vprintf+0x194>
/home/neu/Desktop/OPTEE/source/public/optee_src/optee/optee_os/lib/libutils/ext/trace.c:133
     648:	8b20c35a 	add	x26, x26, w0, sxtw
/home/neu/Desktop/OPTEE/source/public/optee_src/optee/optee_os/lib/libutils/ext/trace.c:135
     64c:	3400093b 	cbz	w27, 770 <trace_vprintf+0x1dc>
/home/neu/Desktop/OPTEE/source/public/optee_src/optee/optee_os/lib/libutils/ext/trace.c:135 (discriminator 1)
     650:	52800342 	mov	w2, #0x1a                  	// #26
     654:	1ad32453 	lsr	w19, w2, w19
     658:	360008d3 	tbz	w19, #0, 770 <trace_vprintf+0x1dc>
print_thread_id():
/home/neu/Desktop/OPTEE/source/public/optee_src/optee/optee_os/lib/libutils/ext/trace.c:66
     65c:	9400042e 	bl	1714 <trace_ext_get_thread_id>
trace_vprintf():
/home/neu/Desktop/OPTEE/source/public/optee_src/optee/optee_os/lib/libutils/ext/trace.c:137
     660:	8b1a029b 	add	x27, x20, x26
     664:	cb1a039c 	sub	x28, x28, x26
print_thread_id():
/home/neu/Desktop/OPTEE/source/public/optee_src/optee/optee_os/lib/libutils/ext/trace.c:66
     668:	2a0003e4 	mov	w4, w0
/home/neu/Desktop/OPTEE/source/public/optee_src/optee/optee_os/lib/libutils/ext/trace.c:68
     66c:	37f80700 	tbnz	w0, #31, 74c <trace_vprintf+0x1b8>
/home/neu/Desktop/OPTEE/source/public/optee_src/optee/optee_os/lib/libutils/ext/trace.c:69
     670:	b0000082 	adrp	x2, 11000 <__text_end+0x2998>
     674:	9137d042 	add	x2, x2, #0xdf4
     678:	aa1c03e1 	mov	x1, x28
     67c:	aa1b03e0 	mov	x0, x27
     680:	52800043 	mov	w3, #0x2                   	// #2
     684:	940000ca 	bl	9ac <snprintk>
trace_vprintf():
/home/neu/Desktop/OPTEE/source/public/optee_src/optee/optee_os/lib/libutils/ext/trace.c:144
     688:	37f80500 	tbnz	w0, #31, 728 <trace_vprintf+0x194>
/home/neu/Desktop/OPTEE/source/public/optee_src/optee/optee_os/lib/libutils/ext/trace.c:146
     68c:	8b20c353 	add	x19, x26, w0, sxtw
/home/neu/Desktop/OPTEE/source/public/optee_src/optee/optee_os/lib/libutils/ext/trace.c:148
     690:	b4000176 	cbz	x22, 6bc <trace_vprintf+0x128>
/home/neu/Desktop/OPTEE/source/public/optee_src/optee/optee_os/lib/libutils/ext/trace.c:149
     694:	b0000082 	adrp	x2, 11000 <__text_end+0x2998>
     698:	9137fc42 	add	x2, x2, #0xdff
     69c:	d2802001 	mov	x1, #0x100                 	// #256
     6a0:	2a1903e4 	mov	w4, w25
     6a4:	aa1603e3 	mov	x3, x22
     6a8:	cb130021 	sub	x1, x1, x19
     6ac:	8b130280 	add	x0, x20, x19
     6b0:	940000bf 	bl	9ac <snprintk>
/home/neu/Desktop/OPTEE/source/public/optee_src/optee/optee_os/lib/libutils/ext/trace.c:151
     6b4:	37f803a0 	tbnz	w0, #31, 728 <trace_vprintf+0x194>
/home/neu/Desktop/OPTEE/source/public/optee_src/optee/optee_os/lib/libutils/ext/trace.c:153
     6b8:	8b20c273 	add	x19, x19, w0, sxtw
/home/neu/Desktop/OPTEE/source/public/optee_src/optee/optee_os/lib/libutils/ext/trace.c:163
     6bc:	910183e3 	add	x3, sp, #0x60
     6c0:	aa1803e1 	mov	x1, x24
     6c4:	aa0303e0 	mov	x0, x3
     6c8:	d2800402 	mov	x2, #0x20                  	// #32
     6cc:	97fffe55 	bl	20 <memcpy>
     6d0:	aa0003e3 	mov	x3, x0
     6d4:	aa1703e2 	mov	x2, x23
     6d8:	8b130280 	add	x0, x20, x19
     6dc:	d2802001 	mov	x1, #0x100                 	// #256
     6e0:	cb130021 	sub	x1, x1, x19
     6e4:	9400009c 	bl	954 <vsnprintk>
/home/neu/Desktop/OPTEE/source/public/optee_src/optee/optee_os/lib/libutils/ext/trace.c:164
     6e8:	7100001f 	cmp	w0, #0x0
     6ec:	5400004d 	b.le	6f4 <trace_vprintf+0x160>
/home/neu/Desktop/OPTEE/source/public/optee_src/optee/optee_os/lib/libutils/ext/trace.c:165
     6f0:	8b20c273 	add	x19, x19, w0, sxtw
/home/neu/Desktop/OPTEE/source/public/optee_src/optee/optee_os/lib/libutils/ext/trace.c:167
     6f4:	f103fa7f 	cmp	x19, #0xfe
     6f8:	d2801fc0 	mov	x0, #0xfe                  	// #254
     6fc:	9a809273 	csel	x19, x19, x0, ls  // ls = plast
/home/neu/Desktop/OPTEE/source/public/optee_src/optee/optee_os/lib/libutils/ext/trace.c:170
     700:	52800140 	mov	w0, #0xa                   	// #10
     704:	38336a80 	strb	w0, [x20, x19]
/home/neu/Desktop/OPTEE/source/public/optee_src/optee/optee_os/lib/libutils/ext/trace.c:171
     708:	b4000093 	cbz	x19, 718 <trace_vprintf+0x184>
/home/neu/Desktop/OPTEE/source/public/optee_src/optee/optee_os/lib/libutils/ext/trace.c:171 (discriminator 1)
     70c:	38736a80 	ldrb	w0, [x20, x19]
     710:	7100281f 	cmp	w0, #0xa
     714:	540003c0 	b.eq	78c <trace_vprintf+0x1f8>  // b.none
/home/neu/Desktop/OPTEE/source/public/optee_src/optee/optee_os/lib/libutils/ext/trace.c:174
     718:	91022be0 	add	x0, sp, #0x8a
     71c:	3833681f 	strb	wzr, [x0, x19]
/home/neu/Desktop/OPTEE/source/public/optee_src/optee/optee_os/lib/libutils/ext/trace.c:176
     720:	aa1403e0 	mov	x0, x20
     724:	940003f2 	bl	16ec <trace_ext_puts>
/home/neu/Desktop/OPTEE/source/public/optee_src/optee/optee_os/lib/libutils/ext/trace.c:177
     728:	f9409ab5 	ldr	x21, [x21, #304]
     72c:	f940c7e0 	ldr	x0, [sp, #392]
     730:	f94002a1 	ldr	x1, [x21]
     734:	eb010000 	subs	x0, x0, x1
     738:	d2800001 	mov	x1, #0x0                   	// #0
     73c:	540002c0 	b.eq	794 <trace_vprintf+0x200>  // b.none
     740:	97ffff7e 	bl	538 <__stack_chk_fail>
trace_level_to_string():
/home/neu/Desktop/OPTEE/source/public/optee_src/optee/optee_os/lib/libutils/ext/trace.c:49
     744:	528009a3 	mov	w3, #0x4d                  	// #77
     748:	17ffffb0 	b	608 <trace_vprintf+0x74>
print_thread_id():
/home/neu/Desktop/OPTEE/source/public/optee_src/optee/optee_os/lib/libutils/ext/trace.c:71
     74c:	aa1c03e1 	mov	x1, x28
     750:	aa1b03e0 	mov	x0, x27
     754:	b0000084 	adrp	x4, 11000 <__text_end+0x2998>
     758:	912efc84 	add	x4, x4, #0xbbf
     75c:	52800043 	mov	w3, #0x2                   	// #2
     760:	b0000082 	adrp	x2, 11000 <__text_end+0x2998>
     764:	9137e842 	add	x2, x2, #0xdfa
     768:	94000091 	bl	9ac <snprintk>
     76c:	17ffffc7 	b	688 <trace_vprintf+0xf4>
trace_vprintf():
/home/neu/Desktop/OPTEE/source/public/optee_src/optee/optee_os/lib/libutils/ext/trace.c:157
     770:	f103fb5f 	cmp	x26, #0xfe
     774:	54fffda8 	b.hi	728 <trace_vprintf+0x194>  // b.pmore
/home/neu/Desktop/OPTEE/source/public/optee_src/optee/optee_os/lib/libutils/ext/trace.c:159
     778:	91000753 	add	x19, x26, #0x1
     77c:	52800400 	mov	w0, #0x20                  	// #32
     780:	383a6a80 	strb	w0, [x20, x26]
/home/neu/Desktop/OPTEE/source/public/optee_src/optee/optee_os/lib/libutils/ext/trace.c:160
     784:	38336a9f 	strb	wzr, [x20, x19]
     788:	17ffffcd 	b	6bc <trace_vprintf+0x128>
/home/neu/Desktop/OPTEE/source/public/optee_src/optee/optee_os/lib/libutils/ext/trace.c:172
     78c:	d1000673 	sub	x19, x19, #0x1
     790:	17ffffde 	b	708 <trace_vprintf+0x174>
/home/neu/Desktop/OPTEE/source/public/optee_src/optee/optee_os/lib/libutils/ext/trace.c:177
     794:	a94153f3 	ldp	x19, x20, [sp, #16]
     798:	a9425bf5 	ldp	x21, x22, [sp, #32]
     79c:	a94363f7 	ldp	x23, x24, [sp, #48]
     7a0:	a9446bf9 	ldp	x25, x26, [sp, #64]
     7a4:	a94573fb 	ldp	x27, x28, [sp, #80]
     7a8:	a8d97bfd 	ldp	x29, x30, [sp], #400
     7ac:	d65f03c0 	ret

00000000000007b0 <trace_printf>:
trace_printf():
/home/neu/Desktop/OPTEE/source/public/optee_src/optee/optee_os/lib/libutils/ext/trace.c:104
     7b0:	a9ad7bfd 	stp	x29, x30, [sp, #-304]!
     7b4:	910003fd 	mov	x29, sp
     7b8:	a90153f3 	stp	x19, x20, [sp, #16]
     7bc:	f0000093 	adrp	x19, 13000 <_DYNAMIC>
     7c0:	aa0003f4 	mov	x20, x0
     7c4:	f9409a73 	ldr	x19, [x19, #304]
     7c8:	3d8027e0 	str	q0, [sp, #144]
     7cc:	3d802be1 	str	q1, [sp, #160]
     7d0:	3d802fe2 	str	q2, [sp, #176]
     7d4:	3d8033e3 	str	q3, [sp, #192]
     7d8:	3d8037e4 	str	q4, [sp, #208]
     7dc:	3d803be5 	str	q5, [sp, #224]
     7e0:	3d803fe6 	str	q6, [sp, #240]
     7e4:	3d8043e7 	str	q7, [sp, #256]
     7e8:	a9119be5 	stp	x5, x6, [sp, #280]
/home/neu/Desktop/OPTEE/source/public/optee_src/optee/optee_os/lib/libutils/ext/trace.c:108
     7ec:	910103e5 	add	x5, sp, #0x40
/home/neu/Desktop/OPTEE/source/public/optee_src/optee/optee_os/lib/libutils/ext/trace.c:104
     7f0:	f90097e7 	str	x7, [sp, #296]
     7f4:	a9025bf5 	stp	x21, x22, [sp, #32]
     7f8:	2a0103f5 	mov	w21, w1
     7fc:	f9400260 	ldr	x0, [x19]
     800:	f90047e0 	str	x0, [sp, #136]
     804:	d2800000 	mov	x0, #0x0                   	// #0
/home/neu/Desktop/OPTEE/source/public/optee_src/optee/optee_os/lib/libutils/ext/trace.c:107
     808:	9104c3e0 	add	x0, sp, #0x130
     80c:	a90683e0 	stp	x0, x0, [sp, #104]
     810:	910443e0 	add	x0, sp, #0x110
     814:	f9003fe0 	str	x0, [sp, #120]
     818:	128002e0 	mov	w0, #0xffffffe8            	// #-24
     81c:	b90083e0 	str	w0, [sp, #128]
     820:	12800fe0 	mov	w0, #0xffffff80            	// #-128
/home/neu/Desktop/OPTEE/source/public/optee_src/optee/optee_os/lib/libutils/ext/trace.c:104
     824:	2a0203f6 	mov	w22, w2
/home/neu/Desktop/OPTEE/source/public/optee_src/optee/optee_os/lib/libutils/ext/trace.c:108
     828:	9101a3e1 	add	x1, sp, #0x68
     82c:	d2800402 	mov	x2, #0x20                  	// #32
/home/neu/Desktop/OPTEE/source/public/optee_src/optee/optee_os/lib/libutils/ext/trace.c:104
     830:	a90363f7 	stp	x23, x24, [sp, #48]
     834:	12001c78 	and	w24, w3, #0xff
     838:	aa0403f7 	mov	x23, x4
/home/neu/Desktop/OPTEE/source/public/optee_src/optee/optee_os/lib/libutils/ext/trace.c:107
     83c:	b90087e0 	str	w0, [sp, #132]
/home/neu/Desktop/OPTEE/source/public/optee_src/optee/optee_os/lib/libutils/ext/trace.c:108
     840:	aa0503e0 	mov	x0, x5
     844:	97fffdf7 	bl	20 <memcpy>
     848:	2a1503e1 	mov	w1, w21
     84c:	aa0003e5 	mov	x5, x0
     850:	aa1703e4 	mov	x4, x23
     854:	aa1403e0 	mov	x0, x20
     858:	2a1803e3 	mov	w3, w24
     85c:	2a1603e2 	mov	w2, w22
     860:	97ffff4d 	bl	594 <trace_vprintf>
/home/neu/Desktop/OPTEE/source/public/optee_src/optee/optee_os/lib/libutils/ext/trace.c:110
     864:	f94047e0 	ldr	x0, [sp, #136]
     868:	f9400261 	ldr	x1, [x19]
     86c:	eb010000 	subs	x0, x0, x1
     870:	d2800001 	mov	x1, #0x0                   	// #0
     874:	54000040 	b.eq	87c <trace_printf+0xcc>  // b.none
     878:	97ffff30 	bl	538 <__stack_chk_fail>
     87c:	a94153f3 	ldp	x19, x20, [sp, #16]
     880:	a9425bf5 	ldp	x21, x22, [sp, #32]
     884:	a94363f7 	ldp	x23, x24, [sp, #48]
     888:	a8d37bfd 	ldp	x29, x30, [sp], #304
     88c:	d65f03c0 	ret

0000000000000890 <dhex_dump>:
dhex_dump():
/home/neu/Desktop/OPTEE/source/public/optee_src/optee/optee_os/lib/libutils/ext/trace.c:287
     890:	d65f03c0 	ret

0000000000000894 <__vsnprintf>:
__vsnprintf():
/home/neu/Desktop/OPTEE/source/public/optee_src/optee/optee_os/lib/libutils/ext/snprintk.c:138
     894:	a9b97bfd 	stp	x29, x30, [sp, #-112]!
     898:	f0000085 	adrp	x5, 13000 <_DYNAMIC>
     89c:	910003fd 	mov	x29, sp
     8a0:	f94098a5 	ldr	x5, [x5, #304]
     8a4:	a90153f3 	stp	x19, x20, [sp, #16]
     8a8:	aa0003f3 	mov	x19, x0
     8ac:	aa0103f4 	mov	x20, x1
     8b0:	f94000a0 	ldr	x0, [x5]
     8b4:	f90037e0 	str	x0, [sp, #104]
     8b8:	d2800000 	mov	x0, #0x0                   	// #0
     8bc:	aa0303e1 	mov	x1, x3
/home/neu/Desktop/OPTEE/source/public/optee_src/optee/optee_os/lib/libutils/ext/snprintk.c:143
     8c0:	910103e0 	add	x0, sp, #0x40
/home/neu/Desktop/OPTEE/source/public/optee_src/optee/optee_os/lib/libutils/ext/snprintk.c:138
     8c4:	a9025bf5 	stp	x21, x22, [sp, #32]
     8c8:	aa0203f5 	mov	x21, x2
/home/neu/Desktop/OPTEE/source/public/optee_src/optee/optee_os/lib/libutils/ext/snprintk.c:142
     8cc:	8b140276 	add	x22, x19, x20
/home/neu/Desktop/OPTEE/source/public/optee_src/optee/optee_os/lib/libutils/ext/snprintk.c:143
     8d0:	d2800402 	mov	x2, #0x20                  	// #32
/home/neu/Desktop/OPTEE/source/public/optee_src/optee/optee_os/lib/libutils/ext/snprintk.c:138
     8d4:	f9001bf7 	str	x23, [sp, #48]
     8d8:	12001c97 	and	w23, w4, #0xff
/home/neu/Desktop/OPTEE/source/public/optee_src/optee/optee_os/lib/libutils/ext/snprintk.c:142
     8dc:	f90033f6 	str	x22, [sp, #96]
/home/neu/Desktop/OPTEE/source/public/optee_src/optee/optee_os/lib/libutils/ext/snprintk.c:143
     8e0:	97fffdd0 	bl	20 <memcpy>
     8e4:	aa0003e3 	mov	x3, x0
     8e8:	2a1703e4 	mov	w4, w23
     8ec:	aa1303e2 	mov	x2, x19
     8f0:	910183e1 	add	x1, sp, #0x60
     8f4:	aa1503e0 	mov	x0, x21
     8f8:	94000060 	bl	a78 <kprintf.constprop.0>
/home/neu/Desktop/OPTEE/source/public/optee_src/optee/optee_os/lib/libutils/ext/snprintk.c:144
     8fc:	f100027f 	cmp	x19, #0x0
     900:	fa401a84 	ccmp	x20, #0x0, #0x4, ne  // ne = any
     904:	540000a0 	b.eq	918 <__vsnprintf+0x84>  // b.none
/home/neu/Desktop/OPTEE/source/public/optee_src/optee/optee_os/lib/libutils/ext/snprintk.c:146
     908:	93407c01 	sxtw	x1, w0
     90c:	eb20c29f 	cmp	x20, w0, sxtw
     910:	54000148 	b.hi	938 <__vsnprintf+0xa4>  // b.pmore
/home/neu/Desktop/OPTEE/source/public/optee_src/optee/optee_os/lib/libutils/ext/snprintk.c:147
     914:	381ff2df 	sturb	wzr, [x22, #-1]
/home/neu/Desktop/OPTEE/source/public/optee_src/optee/optee_os/lib/libutils/ext/snprintk.c:152
     918:	f0000085 	adrp	x5, 13000 <_DYNAMIC>
     91c:	f94098a5 	ldr	x5, [x5, #304]
     920:	f94037e1 	ldr	x1, [sp, #104]
     924:	f94000a2 	ldr	x2, [x5]
     928:	eb020021 	subs	x1, x1, x2
     92c:	d2800002 	mov	x2, #0x0                   	// #0
     930:	54000080 	b.eq	940 <__vsnprintf+0xac>  // b.none
     934:	97ffff01 	bl	538 <__stack_chk_fail>
/home/neu/Desktop/OPTEE/source/public/optee_src/optee/optee_os/lib/libutils/ext/snprintk.c:149
     938:	38216a7f 	strb	wzr, [x19, x1]
/home/neu/Desktop/OPTEE/source/public/optee_src/optee/optee_os/lib/libutils/ext/snprintk.c:151
     93c:	17fffff7 	b	918 <__vsnprintf+0x84>
/home/neu/Desktop/OPTEE/source/public/optee_src/optee/optee_os/lib/libutils/ext/snprintk.c:152
     940:	a94153f3 	ldp	x19, x20, [sp, #16]
     944:	a9425bf5 	ldp	x21, x22, [sp, #32]
     948:	f9401bf7 	ldr	x23, [sp, #48]
     94c:	a8c77bfd 	ldp	x29, x30, [sp], #112
     950:	d65f03c0 	ret

0000000000000954 <vsnprintk>:
vsnprintk():
/home/neu/Desktop/OPTEE/source/public/optee_src/optee/optee_os/lib/libutils/ext/snprintk.c:130
     954:	a9bb7bfd 	stp	x29, x30, [sp, #-80]!
/home/neu/Desktop/OPTEE/source/public/optee_src/optee/optee_os/lib/libutils/ext/snprintk.c:131
     958:	9100c3e4 	add	x4, sp, #0x30
/home/neu/Desktop/OPTEE/source/public/optee_src/optee/optee_os/lib/libutils/ext/snprintk.c:130
     95c:	910003fd 	mov	x29, sp
     960:	a90153f3 	stp	x19, x20, [sp, #16]
     964:	aa0003f3 	mov	x19, x0
     968:	aa0103f4 	mov	x20, x1
/home/neu/Desktop/OPTEE/source/public/optee_src/optee/optee_os/lib/libutils/ext/snprintk.c:131
     96c:	aa0403e0 	mov	x0, x4
/home/neu/Desktop/OPTEE/source/public/optee_src/optee/optee_os/lib/libutils/ext/snprintk.c:130
     970:	aa0303e1 	mov	x1, x3
     974:	f90013f5 	str	x21, [sp, #32]
     978:	aa0203f5 	mov	x21, x2
/home/neu/Desktop/OPTEE/source/public/optee_src/optee/optee_os/lib/libutils/ext/snprintk.c:131
     97c:	d2800402 	mov	x2, #0x20                  	// #32
     980:	97fffda8 	bl	20 <memcpy>
     984:	aa1503e2 	mov	x2, x21
     988:	aa0003e3 	mov	x3, x0
     98c:	aa1403e1 	mov	x1, x20
     990:	aa1303e0 	mov	x0, x19
     994:	52800024 	mov	w4, #0x1                   	// #1
     998:	97ffffbf 	bl	894 <__vsnprintf>
/home/neu/Desktop/OPTEE/source/public/optee_src/optee/optee_os/lib/libutils/ext/snprintk.c:132
     99c:	a94153f3 	ldp	x19, x20, [sp, #16]
     9a0:	f94013f5 	ldr	x21, [sp, #32]
     9a4:	a8c57bfd 	ldp	x29, x30, [sp], #80
     9a8:	d65f03c0 	ret

00000000000009ac <snprintk>:
snprintk():
/home/neu/Desktop/OPTEE/source/public/optee_src/optee/optee_os/lib/libutils/ext/snprintk.c:113
     9ac:	a9ad7bfd 	stp	x29, x30, [sp, #-304]!
     9b0:	910003fd 	mov	x29, sp
     9b4:	a90153f3 	stp	x19, x20, [sp, #16]
     9b8:	f0000093 	adrp	x19, 13000 <_DYNAMIC>
     9bc:	aa0003f4 	mov	x20, x0
     9c0:	f9409a73 	ldr	x19, [x19, #304]
     9c4:	3d8023e0 	str	q0, [sp, #128]
     9c8:	3d8027e1 	str	q1, [sp, #144]
     9cc:	3d802be2 	str	q2, [sp, #160]
     9d0:	3d802fe3 	str	q3, [sp, #176]
     9d4:	3d8033e4 	str	q4, [sp, #192]
     9d8:	3d8037e5 	str	q5, [sp, #208]
     9dc:	3d803be6 	str	q6, [sp, #224]
     9e0:	3d803fe7 	str	q7, [sp, #240]
     9e4:	a91093e3 	stp	x3, x4, [sp, #264]
/home/neu/Desktop/OPTEE/source/public/optee_src/optee/optee_os/lib/libutils/ext/snprintk.c:118
     9e8:	9100c3e3 	add	x3, sp, #0x30
/home/neu/Desktop/OPTEE/source/public/optee_src/optee/optee_os/lib/libutils/ext/snprintk.c:113
     9ec:	a9119be5 	stp	x5, x6, [sp, #280]
     9f0:	f90097e7 	str	x7, [sp, #296]
     9f4:	a9025bf5 	stp	x21, x22, [sp, #32]
     9f8:	aa0103f5 	mov	x21, x1
     9fc:	f9400260 	ldr	x0, [x19]
     a00:	f9003fe0 	str	x0, [sp, #120]
     a04:	d2800000 	mov	x0, #0x0                   	// #0
/home/neu/Desktop/OPTEE/source/public/optee_src/optee/optee_os/lib/libutils/ext/snprintk.c:117
     a08:	9104c3e0 	add	x0, sp, #0x130
     a0c:	a90583e0 	stp	x0, x0, [sp, #88]
     a10:	910403e0 	add	x0, sp, #0x100
     a14:	f90037e0 	str	x0, [sp, #104]
     a18:	128004e0 	mov	w0, #0xffffffd8            	// #-40
     a1c:	b90073e0 	str	w0, [sp, #112]
     a20:	12800fe0 	mov	w0, #0xffffff80            	// #-128
/home/neu/Desktop/OPTEE/source/public/optee_src/optee/optee_os/lib/libutils/ext/snprintk.c:113
     a24:	aa0203f6 	mov	x22, x2
/home/neu/Desktop/OPTEE/source/public/optee_src/optee/optee_os/lib/libutils/ext/snprintk.c:118
     a28:	910163e1 	add	x1, sp, #0x58
     a2c:	d2800402 	mov	x2, #0x20                  	// #32
/home/neu/Desktop/OPTEE/source/public/optee_src/optee/optee_os/lib/libutils/ext/snprintk.c:117
     a30:	b90077e0 	str	w0, [sp, #116]
/home/neu/Desktop/OPTEE/source/public/optee_src/optee/optee_os/lib/libutils/ext/snprintk.c:118
     a34:	aa0303e0 	mov	x0, x3
     a38:	97fffd7a 	bl	20 <memcpy>
     a3c:	aa1603e2 	mov	x2, x22
     a40:	aa0003e3 	mov	x3, x0
     a44:	aa1503e1 	mov	x1, x21
     a48:	aa1403e0 	mov	x0, x20
     a4c:	97ffffc2 	bl	954 <vsnprintk>
/home/neu/Desktop/OPTEE/source/public/optee_src/optee/optee_os/lib/libutils/ext/snprintk.c:122
     a50:	f9403fe1 	ldr	x1, [sp, #120]
     a54:	f9400262 	ldr	x2, [x19]
     a58:	eb020021 	subs	x1, x1, x2
     a5c:	d2800002 	mov	x2, #0x0                   	// #0
     a60:	54000040 	b.eq	a68 <snprintk+0xbc>  // b.none
     a64:	97fffeb5 	bl	538 <__stack_chk_fail>
     a68:	a94153f3 	ldp	x19, x20, [sp, #16]
     a6c:	a9425bf5 	ldp	x21, x22, [sp, #32]
     a70:	a8d37bfd 	ldp	x29, x30, [sp], #304
     a74:	d65f03c0 	ret

0000000000000a78 <kprintf.constprop.0>:
kprintf():
/home/neu/Desktop/OPTEE/source/public/optee_src/optee/optee_os/lib/libutils/ext/snprintk.c:242
     a78:	d103c3ff 	sub	sp, sp, #0xf0
     a7c:	aa0103e8 	mov	x8, x1
     a80:	a9037bfd 	stp	x29, x30, [sp, #48]
     a84:	9100c3fd 	add	x29, sp, #0x30
     a88:	a90873fb 	stp	x27, x28, [sp, #128]
     a8c:	aa0003fb 	mov	x27, x0
     a90:	12001c80 	and	w0, w4, #0xff
     a94:	b900a3e0 	str	w0, [sp, #160]
     a98:	f0000080 	adrp	x0, 13000 <_DYNAMIC>
     a9c:	a90453f3 	stp	x19, x20, [sp, #64]
     aa0:	b9401874 	ldr	w20, [x3, #24]
     aa4:	f9409800 	ldr	x0, [x0, #304]
     aa8:	a9055bf5 	stp	x21, x22, [sp, #80]
     aac:	aa0203f6 	mov	x22, x2
     ab0:	f9400001 	ldr	x1, [x0]
     ab4:	f90077e1 	str	x1, [sp, #232]
     ab8:	d2800001 	mov	x1, #0x0                   	// #0
     abc:	a90663f7 	stp	x23, x24, [sp, #96]
     ac0:	a9076bf9 	stp	x25, x26, [sp, #112]
     ac4:	a9406873 	ldp	x19, x26, [x3]
/home/neu/Desktop/OPTEE/source/public/optee_src/optee/optee_os/lib/libutils/ext/snprintk.c:264
     ac8:	b40004c8 	cbz	x8, b60 <kprintf.constprop.0+0xe8>
/home/neu/Desktop/OPTEE/source/public/optee_src/optee/optee_os/lib/libutils/ext/snprintk.c:265
     acc:	f9400118 	ldr	x24, [x8]
/home/neu/Desktop/OPTEE/source/public/optee_src/optee/optee_os/lib/libutils/ext/snprintk.c:543
     ad0:	910303ec 	add	x12, sp, #0xc0
     ad4:	b0000080 	adrp	x0, 11000 <__text_end+0x2998>
     ad8:	911c8000 	add	x0, x0, #0x720
/home/neu/Desktop/OPTEE/source/public/optee_src/optee/optee_os/lib/libutils/ext/snprintk.c:275
     adc:	d2800017 	mov	x23, #0x0                   	// #0
/home/neu/Desktop/OPTEE/source/public/optee_src/optee/optee_os/lib/libutils/ext/snprintk.c:273
     ae0:	52800019 	mov	w25, #0x0                   	// #0
     ae4:	f9004be0 	str	x0, [sp, #144]
/home/neu/Desktop/OPTEE/source/public/optee_src/optee/optee_os/lib/libutils/ext/snprintk.c:281
     ae8:	39400360 	ldrb	w0, [x27]
     aec:	7100941f 	cmp	w0, #0x25
     af0:	7a401804 	ccmp	w0, #0x0, #0x4, ne  // ne = any
     af4:	540003a1 	b.ne	b68 <kprintf.constprop.0+0xf0>  // b.any
/home/neu/Desktop/OPTEE/source/public/optee_src/optee/optee_os/lib/libutils/ext/snprintk.c:285
     af8:	34005260 	cbz	w0, 1544 <kprintf.constprop.0+0xacc>
/home/neu/Desktop/OPTEE/source/public/optee_src/optee/optee_os/lib/libutils/ext/snprintk.c:293
     afc:	12800005 	mov	w5, #0xffffffff            	// #-1
     b00:	b0000086 	adrp	x6, 11000 <__text_end+0x2998>
     b04:	911cf0c6 	add	x6, x6, #0x73c
/home/neu/Desktop/OPTEE/source/public/optee_src/optee/optee_os/lib/libutils/ext/snprintk.c:288
     b08:	9100077b 	add	x27, x27, #0x1
     b0c:	2a1403e4 	mov	w4, w20
     b10:	aa1303e3 	mov	x3, x19
/home/neu/Desktop/OPTEE/source/public/optee_src/optee/optee_os/lib/libutils/ext/snprintk.c:330
     b14:	2a0503ee 	mov	w14, w5
/home/neu/Desktop/OPTEE/source/public/optee_src/optee/optee_os/lib/libutils/ext/snprintk.c:294
     b18:	52800001 	mov	w1, #0x0                   	// #0
/home/neu/Desktop/OPTEE/source/public/optee_src/optee/optee_os/lib/libutils/ext/snprintk.c:292
     b1c:	5280000a 	mov	w10, #0x0                   	// #0
/home/neu/Desktop/OPTEE/source/public/optee_src/optee/optee_os/lib/libutils/ext/snprintk.c:290
     b20:	52800015 	mov	w21, #0x0                   	// #0
/home/neu/Desktop/OPTEE/source/public/optee_src/optee/optee_os/lib/libutils/ext/snprintk.c:352
     b24:	5280014d 	mov	w13, #0xa                   	// #10
/home/neu/Desktop/OPTEE/source/public/optee_src/optee/optee_os/lib/libutils/ext/snprintk.c:305
     b28:	5280040f 	mov	w15, #0x20                  	// #32
/home/neu/Desktop/OPTEE/source/public/optee_src/optee/optee_os/lib/libutils/ext/snprintk.c:296
     b2c:	3840177c 	ldrb	w28, [x27], #1
/home/neu/Desktop/OPTEE/source/public/optee_src/optee/optee_os/lib/libutils/ext/snprintk.c:297
     b30:	7100e79f 	cmp	w28, #0x39
     b34:	5400054c 	b.gt	bdc <kprintf.constprop.0+0x164>
     b38:	71007f9f 	cmp	w28, #0x1f
     b3c:	5400502d 	b.le	1540 <kprintf.constprop.0+0xac8>
     b40:	51008380 	sub	w0, w28, #0x20
     b44:	7100641f 	cmp	w0, #0x19
     b48:	54000508 	b.hi	be8 <kprintf.constprop.0+0x170>  // b.pmore
     b4c:	f9404be2 	ldr	x2, [sp, #144]
     b50:	38604840 	ldrb	w0, [x2, w0, uxtw]
     b54:	10000062 	adr	x2, b60 <kprintf.constprop.0+0xe8>
     b58:	8b208840 	add	x0, x2, w0, sxtb #2
     b5c:	d61f0000 	br	x0
/home/neu/Desktop/OPTEE/source/public/optee_src/optee/optee_os/lib/libutils/ext/snprintk.c:267
     b60:	d2800018 	mov	x24, #0x0                   	// #0
     b64:	17ffffdb 	b	ad0 <kprintf.constprop.0+0x58>
/home/neu/Desktop/OPTEE/source/public/optee_src/optee/optee_os/lib/libutils/ext/snprintk.c:282
     b68:	11000739 	add	w25, w25, #0x1
/home/neu/Desktop/OPTEE/source/public/optee_src/optee/optee_os/lib/libutils/ext/snprintk.c:283
     b6c:	b40000b6 	cbz	x22, b80 <kprintf.constprop.0+0x108>
     b70:	f100011f 	cmp	x8, #0x0
     b74:	fa5812c0 	ccmp	x22, x24, #0x0, ne  // ne = any
     b78:	54000042 	b.cs	b80 <kprintf.constprop.0+0x108>  // b.hs, b.nlast
     b7c:	380016c0 	strb	w0, [x22], #1
/home/neu/Desktop/OPTEE/source/public/optee_src/optee/optee_os/lib/libutils/ext/snprintk.c:281
     b80:	9100077b 	add	x27, x27, #0x1
     b84:	17ffffd9 	b	ae8 <kprintf.constprop.0+0x70>
/home/neu/Desktop/OPTEE/source/public/optee_src/optee/optee_os/lib/libutils/ext/snprintk.c:325
     b88:	52800561 	mov	w1, #0x2b                  	// #43
     b8c:	17ffffe8 	b	b2c <kprintf.constprop.0+0xb4>
     b90:	786058c0 	ldrh	w0, [x6, w0, uxtw #1]
     b94:	10000062 	adr	x2, ba0 <kprintf.constprop.0+0x128>
     b98:	8b20a840 	add	x0, x2, w0, sxth #2
     b9c:	d61f0000 	br	x0
/home/neu/Desktop/OPTEE/source/public/optee_src/optee/optee_os/lib/libutils/ext/snprintk.c:480
     ba0:	b0000097 	adrp	x23, 11000 <__text_end+0x2998>
     ba4:	911eaaf7 	add	x23, x23, #0x7aa
     ba8:	910046f7 	add	x23, x23, #0x11
/home/neu/Desktop/OPTEE/source/public/optee_src/optee/optee_os/lib/libutils/ext/snprintk.c:481
     bac:	36384515 	tbz	w21, #7, 144c <kprintf.constprop.0+0x9d4>
     bb0:	37f84644 	tbnz	w4, #31, 1478 <kprintf.constprop.0+0xa00>
     bb4:	91003c73 	add	x19, x3, #0xf
     bb8:	2a0403f4 	mov	w20, w4
     bbc:	927df273 	and	x19, x19, #0xfffffffffffffff8
     bc0:	f9400062 	ldr	x2, [x3]
/home/neu/Desktop/OPTEE/source/public/optee_src/optee/optee_os/lib/libutils/ext/snprintk.c:484
     bc4:	36003475 	tbz	w21, #0, 1250 <kprintf.constprop.0+0x7d8>
     bc8:	b4003442 	cbz	x2, 1250 <kprintf.constprop.0+0x7d8>
/home/neu/Desktop/OPTEE/source/public/optee_src/optee/optee_os/lib/libutils/ext/snprintk.c:485
     bcc:	321f02b5 	orr	w21, w21, #0x2
/home/neu/Desktop/OPTEE/source/public/optee_src/optee/optee_os/lib/libutils/ext/snprintk.c:482
     bd0:	52800040 	mov	w0, #0x2                   	// #2
/home/neu/Desktop/OPTEE/source/public/optee_src/optee/optee_os/lib/libutils/ext/snprintk.c:488
     bd4:	52800001 	mov	w1, #0x0                   	// #0
     bd8:	14000078 	b	db8 <kprintf.constprop.0+0x340>
/home/neu/Desktop/OPTEE/source/public/optee_src/optee/optee_os/lib/libutils/ext/snprintk.c:297
     bdc:	51011380 	sub	w0, w28, #0x44
     be0:	7100d81f 	cmp	w0, #0x36
     be4:	54fffd69 	b.ls	b90 <kprintf.constprop.0+0x118>  // b.plast
/home/neu/Desktop/OPTEE/source/public/optee_src/optee/optee_os/lib/libutils/ext/snprintk.c:554
     be8:	2a0403f4 	mov	w20, w4
     bec:	aa0303f3 	mov	x19, x3
/home/neu/Desktop/OPTEE/source/public/optee_src/optee/optee_os/lib/libutils/ext/snprintk.c:551
     bf0:	390303fc 	strb	w28, [sp, #192]
/home/neu/Desktop/OPTEE/source/public/optee_src/optee/optee_os/lib/libutils/ext/snprintk.c:554
     bf4:	14000058 	b	d54 <kprintf.constprop.0+0x2dc>
/home/neu/Desktop/OPTEE/source/public/optee_src/optee/optee_os/lib/libutils/ext/snprintk.c:305
     bf8:	7100003f 	cmp	w1, #0x0
     bfc:	1a8f1021 	csel	w1, w1, w15, ne  // ne = any
     c00:	17ffffcb 	b	b2c <kprintf.constprop.0+0xb4>
/home/neu/Desktop/OPTEE/source/public/optee_src/optee/optee_os/lib/libutils/ext/snprintk.c:308
     c04:	320002b5 	orr	w21, w21, #0x1
/home/neu/Desktop/OPTEE/source/public/optee_src/optee/optee_os/lib/libutils/ext/snprintk.c:309
     c08:	17ffffc9 	b	b2c <kprintf.constprop.0+0xb4>
/home/neu/Desktop/OPTEE/source/public/optee_src/optee/optee_os/lib/libutils/ext/snprintk.c:317
     c0c:	37f80124 	tbnz	w4, #31, c30 <kprintf.constprop.0+0x1b8>
     c10:	91002c62 	add	x2, x3, #0xb
     c14:	aa0303e0 	mov	x0, x3
     c18:	927df043 	and	x3, x2, #0xfffffffffffffff8
     c1c:	b940000a 	ldr	w10, [x0]
     c20:	36fff86a 	tbz	w10, #31, b2c <kprintf.constprop.0+0xb4>
/home/neu/Desktop/OPTEE/source/public/optee_src/optee/optee_os/lib/libutils/ext/snprintk.c:319
     c24:	4b0a03ea 	neg	w10, w10
/home/neu/Desktop/OPTEE/source/public/optee_src/optee/optee_os/lib/libutils/ext/snprintk.c:322
     c28:	321e02b5 	orr	w21, w21, #0x4
/home/neu/Desktop/OPTEE/source/public/optee_src/optee/optee_os/lib/libutils/ext/snprintk.c:323
     c2c:	17ffffc0 	b	b2c <kprintf.constprop.0+0xb4>
/home/neu/Desktop/OPTEE/source/public/optee_src/optee/optee_os/lib/libutils/ext/snprintk.c:317
     c30:	11002082 	add	w2, w4, #0x8
     c34:	7100005f 	cmp	w2, #0x0
     c38:	540000cd 	b.le	c50 <kprintf.constprop.0+0x1d8>
     c3c:	91002c67 	add	x7, x3, #0xb
     c40:	aa0303e0 	mov	x0, x3
     c44:	2a0203e4 	mov	w4, w2
     c48:	927df0e3 	and	x3, x7, #0xfffffffffffffff8
     c4c:	17fffff4 	b	c1c <kprintf.constprop.0+0x1a4>
     c50:	8b24c340 	add	x0, x26, w4, sxtw
     c54:	2a0203e4 	mov	w4, w2
     c58:	17fffff1 	b	c1c <kprintf.constprop.0+0x1a4>
/home/neu/Desktop/OPTEE/source/public/optee_src/optee/optee_os/lib/libutils/ext/snprintk.c:328
     c5c:	3840177c 	ldrb	w28, [x27], #1
     c60:	7100ab9f 	cmp	w28, #0x2a
     c64:	54000341 	b.ne	ccc <kprintf.constprop.0+0x254>  // b.any
/home/neu/Desktop/OPTEE/source/public/optee_src/optee/optee_os/lib/libutils/ext/snprintk.c:329
     c68:	37f80144 	tbnz	w4, #31, c90 <kprintf.constprop.0+0x218>
     c6c:	91002c62 	add	x2, x3, #0xb
     c70:	2a0403e7 	mov	w7, w4
     c74:	927df042 	and	x2, x2, #0xfffffffffffffff8
/home/neu/Desktop/OPTEE/source/public/optee_src/optee/optee_os/lib/libutils/ext/snprintk.c:330
     c78:	b9400065 	ldr	w5, [x3]
/home/neu/Desktop/OPTEE/source/public/optee_src/optee/optee_os/lib/libutils/ext/snprintk.c:331
     c7c:	2a0703e4 	mov	w4, w7
     c80:	aa0203e3 	mov	x3, x2
/home/neu/Desktop/OPTEE/source/public/optee_src/optee/optee_os/lib/libutils/ext/snprintk.c:330
     c84:	710000bf 	cmp	w5, #0x0
     c88:	1a8ea0a5 	csel	w5, w5, w14, ge  // ge = tcont
/home/neu/Desktop/OPTEE/source/public/optee_src/optee/optee_os/lib/libutils/ext/snprintk.c:331
     c8c:	17ffffa8 	b	b2c <kprintf.constprop.0+0xb4>
/home/neu/Desktop/OPTEE/source/public/optee_src/optee/optee_os/lib/libutils/ext/snprintk.c:329
     c90:	11002087 	add	w7, w4, #0x8
     c94:	710000ff 	cmp	w7, #0x0
     c98:	5400008d 	b.le	ca8 <kprintf.constprop.0+0x230>
     c9c:	91002c62 	add	x2, x3, #0xb
     ca0:	927df042 	and	x2, x2, #0xfffffffffffffff8
     ca4:	17fffff5 	b	c78 <kprintf.constprop.0+0x200>
     ca8:	aa0303e2 	mov	x2, x3
     cac:	8b24c343 	add	x3, x26, w4, sxtw
     cb0:	17fffff2 	b	c78 <kprintf.constprop.0+0x200>
/home/neu/Desktop/OPTEE/source/public/optee_src/optee/optee_os/lib/libutils/ext/snprintk.c:335
     cb4:	1b0d00a5 	madd	w5, w5, w13, w0
/home/neu/Desktop/OPTEE/source/public/optee_src/optee/optee_os/lib/libutils/ext/snprintk.c:336
     cb8:	3840177c 	ldrb	w28, [x27], #1
/home/neu/Desktop/OPTEE/source/public/optee_src/optee/optee_os/lib/libutils/ext/snprintk.c:334
     cbc:	5100c380 	sub	w0, w28, #0x30
     cc0:	7100241f 	cmp	w0, #0x9
     cc4:	54ffff89 	b.ls	cb4 <kprintf.constprop.0+0x23c>  // b.plast
     cc8:	17ffff9a 	b	b30 <kprintf.constprop.0+0xb8>
/home/neu/Desktop/OPTEE/source/public/optee_src/optee/optee_os/lib/libutils/ext/snprintk.c:333
     ccc:	52800005 	mov	w5, #0x0                   	// #0
     cd0:	17fffffb 	b	cbc <kprintf.constprop.0+0x244>
/home/neu/Desktop/OPTEE/source/public/optee_src/optee/optee_os/lib/libutils/ext/snprintk.c:346
     cd4:	321602b5 	orr	w21, w21, #0x400
/home/neu/Desktop/OPTEE/source/public/optee_src/optee/optee_os/lib/libutils/ext/snprintk.c:347
     cd8:	17ffff95 	b	b2c <kprintf.constprop.0+0xb4>
/home/neu/Desktop/OPTEE/source/public/optee_src/optee/optee_os/lib/libutils/ext/snprintk.c:297
     cdc:	5280000a 	mov	w10, #0x0                   	// #0
/home/neu/Desktop/OPTEE/source/public/optee_src/optee/optee_os/lib/libutils/ext/snprintk.c:352
     ce0:	5100c39c 	sub	w28, w28, #0x30
     ce4:	1b0d714a 	madd	w10, w10, w13, w28
/home/neu/Desktop/OPTEE/source/public/optee_src/optee/optee_os/lib/libutils/ext/snprintk.c:353
     ce8:	3840177c 	ldrb	w28, [x27], #1
/home/neu/Desktop/OPTEE/source/public/optee_src/optee/optee_os/lib/libutils/ext/snprintk.c:354
     cec:	5100c380 	sub	w0, w28, #0x30
     cf0:	7100241f 	cmp	w0, #0x9
     cf4:	54ffff69 	b.ls	ce0 <kprintf.constprop.0+0x268>  // b.plast
     cf8:	17ffff8e 	b	b30 <kprintf.constprop.0+0xb8>
/home/neu/Desktop/OPTEE/source/public/optee_src/optee/optee_os/lib/libutils/ext/snprintk.c:358
     cfc:	321a02b5 	orr	w21, w21, #0x40
/home/neu/Desktop/OPTEE/source/public/optee_src/optee/optee_os/lib/libutils/ext/snprintk.c:359
     d00:	17ffff8b 	b	b2c <kprintf.constprop.0+0xb4>
/home/neu/Desktop/OPTEE/source/public/optee_src/optee/optee_os/lib/libutils/ext/snprintk.c:361
     d04:	321902b5 	orr	w21, w21, #0x80
/home/neu/Desktop/OPTEE/source/public/optee_src/optee/optee_os/lib/libutils/ext/snprintk.c:362
     d08:	17ffff89 	b	b2c <kprintf.constprop.0+0xb4>
/home/neu/Desktop/OPTEE/source/public/optee_src/optee/optee_os/lib/libutils/ext/snprintk.c:364
     d0c:	39400360 	ldrb	w0, [x27]
     d10:	7101b01f 	cmp	w0, #0x6c
     d14:	54000081 	b.ne	d24 <kprintf.constprop.0+0x2ac>  // b.any
     d18:	9100077b 	add	x27, x27, #0x1
/home/neu/Desktop/OPTEE/source/public/optee_src/optee/optee_os/lib/libutils/ext/snprintk.c:372
     d1c:	321b02b5 	orr	w21, w21, #0x20
/home/neu/Desktop/OPTEE/source/public/optee_src/optee/optee_os/lib/libutils/ext/snprintk.c:373
     d20:	17ffff83 	b	b2c <kprintf.constprop.0+0xb4>
/home/neu/Desktop/OPTEE/source/public/optee_src/optee/optee_os/lib/libutils/ext/snprintk.c:368
     d24:	321c02b5 	orr	w21, w21, #0x10
     d28:	17ffff81 	b	b2c <kprintf.constprop.0+0xb4>
/home/neu/Desktop/OPTEE/source/public/optee_src/optee/optee_os/lib/libutils/ext/snprintk.c:375
     d2c:	321802b5 	orr	w21, w21, #0x100
/home/neu/Desktop/OPTEE/source/public/optee_src/optee/optee_os/lib/libutils/ext/snprintk.c:376
     d30:	17ffff7f 	b	b2c <kprintf.constprop.0+0xb4>
/home/neu/Desktop/OPTEE/source/public/optee_src/optee/optee_os/lib/libutils/ext/snprintk.c:378
     d34:	321702b5 	orr	w21, w21, #0x200
/home/neu/Desktop/OPTEE/source/public/optee_src/optee/optee_os/lib/libutils/ext/snprintk.c:379
     d38:	17ffff7d 	b	b2c <kprintf.constprop.0+0xb4>
/home/neu/Desktop/OPTEE/source/public/optee_src/optee/optee_os/lib/libutils/ext/snprintk.c:381
     d3c:	37f80164 	tbnz	w4, #31, d68 <kprintf.constprop.0+0x2f0>
     d40:	91002c73 	add	x19, x3, #0xb
     d44:	2a0403f4 	mov	w20, w4
     d48:	927df273 	and	x19, x19, #0xfffffffffffffff8
     d4c:	b9400060 	ldr	w0, [x3]
     d50:	390303e0 	strb	w0, [sp, #192]
/home/neu/Desktop/OPTEE/source/public/optee_src/optee/optee_os/lib/libutils/ext/snprintk.c:550
     d54:	910303e3 	add	x3, sp, #0xc0
/home/neu/Desktop/OPTEE/source/public/optee_src/optee/optee_os/lib/libutils/ext/snprintk.c:552
     d58:	52800025 	mov	w5, #0x1                   	// #1
/home/neu/Desktop/OPTEE/source/public/optee_src/optee/optee_os/lib/libutils/ext/snprintk.c:291
     d5c:	52800006 	mov	w6, #0x0                   	// #0
/home/neu/Desktop/OPTEE/source/public/optee_src/optee/optee_os/lib/libutils/ext/snprintk.c:553
     d60:	52800001 	mov	w1, #0x0                   	// #0
/home/neu/Desktop/OPTEE/source/public/optee_src/optee/optee_os/lib/libutils/ext/snprintk.c:554
     d64:	140000fa 	b	114c <kprintf.constprop.0+0x6d4>
/home/neu/Desktop/OPTEE/source/public/optee_src/optee/optee_os/lib/libutils/ext/snprintk.c:381
     d68:	11002094 	add	w20, w4, #0x8
     d6c:	7100029f 	cmp	w20, #0x0
     d70:	5400008d 	b.le	d80 <kprintf.constprop.0+0x308>
     d74:	91002c73 	add	x19, x3, #0xb
     d78:	927df273 	and	x19, x19, #0xfffffffffffffff8
     d7c:	17fffff4 	b	d4c <kprintf.constprop.0+0x2d4>
     d80:	aa0303f3 	mov	x19, x3
     d84:	8b24c343 	add	x3, x26, w4, sxtw
     d88:	17fffff1 	b	d4c <kprintf.constprop.0+0x2d4>
/home/neu/Desktop/OPTEE/source/public/optee_src/optee/optee_os/lib/libutils/ext/snprintk.c:386
     d8c:	321c02b5 	orr	w21, w21, #0x10
/home/neu/Desktop/OPTEE/source/public/optee_src/optee/optee_os/lib/libutils/ext/snprintk.c:390
     d90:	363802f5 	tbz	w21, #7, dec <kprintf.constprop.0+0x374>
     d94:	37f80424 	tbnz	w4, #31, e18 <kprintf.constprop.0+0x3a0>
     d98:	91003c73 	add	x19, x3, #0xf
     d9c:	2a0403f4 	mov	w20, w4
     da0:	927df273 	and	x19, x19, #0xfffffffffffffff8
     da4:	f9400062 	ldr	x2, [x3]
/home/neu/Desktop/OPTEE/source/public/optee_src/optee/optee_os/lib/libutils/ext/snprintk.c:391
     da8:	b6f82e02 	tbz	x2, #63, 1368 <kprintf.constprop.0+0x8f0>
/home/neu/Desktop/OPTEE/source/public/optee_src/optee/optee_os/lib/libutils/ext/snprintk.c:392
     dac:	cb0203e2 	neg	x2, x2
/home/neu/Desktop/OPTEE/source/public/optee_src/optee/optee_os/lib/libutils/ext/snprintk.c:395
     db0:	52800020 	mov	w0, #0x1                   	// #1
/home/neu/Desktop/OPTEE/source/public/optee_src/optee/optee_os/lib/libutils/ext/snprintk.c:393
     db4:	528005a1 	mov	w1, #0x2d                  	// #45
/home/neu/Desktop/OPTEE/source/public/optee_src/optee/optee_os/lib/libutils/ext/snprintk.c:494
     db8:	310004bf 	cmn	w5, #0x1
     dbc:	54003a21 	b.ne	1500 <kprintf.constprop.0+0xa88>  // b.any
/home/neu/Desktop/OPTEE/source/public/optee_src/optee/optee_os/lib/libutils/ext/snprintk.c:509
     dc0:	7100041f 	cmp	w0, #0x1
     dc4:	54002d60 	b.eq	1370 <kprintf.constprop.0+0x8f8>  // b.none
     dc8:	7100081f 	cmp	w0, #0x2
     dcc:	54000ea1 	b.ne	fa0 <kprintf.constprop.0+0x528>  // b.any
/home/neu/Desktop/OPTEE/source/public/optee_src/optee/optee_os/lib/libutils/ext/snprintk.c:502
     dd0:	91009583 	add	x3, x12, #0x25
/home/neu/Desktop/OPTEE/source/public/optee_src/optee/optee_os/lib/libutils/ext/snprintk.c:531
     dd4:	92400c40 	and	x0, x2, #0xf
/home/neu/Desktop/OPTEE/source/public/optee_src/optee/optee_os/lib/libutils/ext/snprintk.c:532
     dd8:	d344fc42 	lsr	x2, x2, #4
/home/neu/Desktop/OPTEE/source/public/optee_src/optee/optee_os/lib/libutils/ext/snprintk.c:531
     ddc:	38606ae0 	ldrb	w0, [x23, x0]
     de0:	381ffc60 	strb	w0, [x3, #-1]!
/home/neu/Desktop/OPTEE/source/public/optee_src/optee/optee_os/lib/libutils/ext/snprintk.c:533
     de4:	b5ffff82 	cbnz	x2, dd4 <kprintf.constprop.0+0x35c>
     de8:	1400007b 	b	fd4 <kprintf.constprop.0+0x55c>
/home/neu/Desktop/OPTEE/source/public/optee_src/optee/optee_os/lib/libutils/ext/snprintk.c:390
     dec:	3747fd55 	tbnz	w21, #8, d94 <kprintf.constprop.0+0x31c>
     df0:	374ffd35 	tbnz	w21, #9, d94 <kprintf.constprop.0+0x31c>
     df4:	372ffd15 	tbnz	w21, #5, d94 <kprintf.constprop.0+0x31c>
     df8:	3727fcf5 	tbnz	w21, #4, d94 <kprintf.constprop.0+0x31c>
     dfc:	36300335 	tbz	w21, #6, e60 <kprintf.constprop.0+0x3e8>
     e00:	37f801e4 	tbnz	w4, #31, e3c <kprintf.constprop.0+0x3c4>
     e04:	91002c73 	add	x19, x3, #0xb
     e08:	2a0403f4 	mov	w20, w4
     e0c:	927df273 	and	x19, x19, #0xfffffffffffffff8
     e10:	79800062 	ldrsh	x2, [x3]
     e14:	17ffffe5 	b	da8 <kprintf.constprop.0+0x330>
     e18:	11002094 	add	w20, w4, #0x8
     e1c:	7100029f 	cmp	w20, #0x0
     e20:	5400008d 	b.le	e30 <kprintf.constprop.0+0x3b8>
     e24:	91003c73 	add	x19, x3, #0xf
     e28:	927df273 	and	x19, x19, #0xfffffffffffffff8
     e2c:	17ffffde 	b	da4 <kprintf.constprop.0+0x32c>
     e30:	aa0303f3 	mov	x19, x3
     e34:	8b24c343 	add	x3, x26, w4, sxtw
     e38:	17ffffdb 	b	da4 <kprintf.constprop.0+0x32c>
     e3c:	11002094 	add	w20, w4, #0x8
     e40:	7100029f 	cmp	w20, #0x0
     e44:	5400008d 	b.le	e54 <kprintf.constprop.0+0x3dc>
     e48:	91002c73 	add	x19, x3, #0xb
     e4c:	927df273 	and	x19, x19, #0xfffffffffffffff8
     e50:	17fffff0 	b	e10 <kprintf.constprop.0+0x398>
     e54:	aa0303f3 	mov	x19, x3
     e58:	8b24c343 	add	x3, x26, w4, sxtw
     e5c:	17ffffed 	b	e10 <kprintf.constprop.0+0x398>
     e60:	37f800c4 	tbnz	w4, #31, e78 <kprintf.constprop.0+0x400>
     e64:	91002c73 	add	x19, x3, #0xb
     e68:	2a0403f4 	mov	w20, w4
     e6c:	927df273 	and	x19, x19, #0xfffffffffffffff8
     e70:	b9800062 	ldrsw	x2, [x3]
     e74:	17ffffcd 	b	da8 <kprintf.constprop.0+0x330>
     e78:	11002094 	add	w20, w4, #0x8
     e7c:	7100029f 	cmp	w20, #0x0
     e80:	5400008d 	b.le	e90 <kprintf.constprop.0+0x418>
     e84:	91002c73 	add	x19, x3, #0xb
     e88:	927df273 	and	x19, x19, #0xfffffffffffffff8
     e8c:	17fffff9 	b	e70 <kprintf.constprop.0+0x3f8>
     e90:	aa0303f3 	mov	x19, x3
     e94:	8b24c343 	add	x3, x26, w4, sxtw
     e98:	17fffff6 	b	e70 <kprintf.constprop.0+0x3f8>
/home/neu/Desktop/OPTEE/source/public/optee_src/optee/optee_os/lib/libutils/ext/snprintk.c:398
     e9c:	36380135 	tbz	w21, #7, ec0 <kprintf.constprop.0+0x448>
/home/neu/Desktop/OPTEE/source/public/optee_src/optee/optee_os/lib/libutils/ext/snprintk.c:407
     ea0:	37f80284 	tbnz	w4, #31, ef0 <kprintf.constprop.0+0x478>
     ea4:	91003c73 	add	x19, x3, #0xf
     ea8:	2a0403f4 	mov	w20, w4
     eac:	927df273 	and	x19, x19, #0xfffffffffffffff8
     eb0:	f9400060 	ldr	x0, [x3]
     eb4:	93407f21 	sxtw	x1, w25
     eb8:	f9000001 	str	x1, [x0]
     ebc:	17ffff0b 	b	ae8 <kprintf.constprop.0+0x70>
/home/neu/Desktop/OPTEE/source/public/optee_src/optee/optee_os/lib/libutils/ext/snprintk.c:400
     ec0:	3747ff15 	tbnz	w21, #8, ea0 <kprintf.constprop.0+0x428>
/home/neu/Desktop/OPTEE/source/public/optee_src/optee/optee_os/lib/libutils/ext/snprintk.c:402
     ec4:	374ffef5 	tbnz	w21, #9, ea0 <kprintf.constprop.0+0x428>
/home/neu/Desktop/OPTEE/source/public/optee_src/optee/optee_os/lib/libutils/ext/snprintk.c:404
     ec8:	372ffed5 	tbnz	w21, #5, ea0 <kprintf.constprop.0+0x428>
/home/neu/Desktop/OPTEE/source/public/optee_src/optee/optee_os/lib/libutils/ext/snprintk.c:406
     ecc:	3727feb5 	tbnz	w21, #4, ea0 <kprintf.constprop.0+0x428>
/home/neu/Desktop/OPTEE/source/public/optee_src/optee/optee_os/lib/libutils/ext/snprintk.c:408
     ed0:	36300355 	tbz	w21, #6, f38 <kprintf.constprop.0+0x4c0>
/home/neu/Desktop/OPTEE/source/public/optee_src/optee/optee_os/lib/libutils/ext/snprintk.c:409
     ed4:	37f80204 	tbnz	w4, #31, f14 <kprintf.constprop.0+0x49c>
     ed8:	91003c73 	add	x19, x3, #0xf
     edc:	2a0403f4 	mov	w20, w4
     ee0:	927df273 	and	x19, x19, #0xfffffffffffffff8
     ee4:	f9400060 	ldr	x0, [x3]
     ee8:	79000019 	strh	w25, [x0]
     eec:	17fffeff 	b	ae8 <kprintf.constprop.0+0x70>
/home/neu/Desktop/OPTEE/source/public/optee_src/optee/optee_os/lib/libutils/ext/snprintk.c:407
     ef0:	11002094 	add	w20, w4, #0x8
     ef4:	7100029f 	cmp	w20, #0x0
     ef8:	5400008d 	b.le	f08 <kprintf.constprop.0+0x490>
     efc:	91003c73 	add	x19, x3, #0xf
     f00:	927df273 	and	x19, x19, #0xfffffffffffffff8
     f04:	17ffffeb 	b	eb0 <kprintf.constprop.0+0x438>
     f08:	aa0303f3 	mov	x19, x3
     f0c:	8b24c343 	add	x3, x26, w4, sxtw
     f10:	17ffffe8 	b	eb0 <kprintf.constprop.0+0x438>
/home/neu/Desktop/OPTEE/source/public/optee_src/optee/optee_os/lib/libutils/ext/snprintk.c:409
     f14:	11002094 	add	w20, w4, #0x8
     f18:	7100029f 	cmp	w20, #0x0
     f1c:	5400008d 	b.le	f2c <kprintf.constprop.0+0x4b4>
     f20:	91003c73 	add	x19, x3, #0xf
     f24:	927df273 	and	x19, x19, #0xfffffffffffffff8
     f28:	17ffffef 	b	ee4 <kprintf.constprop.0+0x46c>
     f2c:	aa0303f3 	mov	x19, x3
     f30:	8b24c343 	add	x3, x26, w4, sxtw
     f34:	17ffffec 	b	ee4 <kprintf.constprop.0+0x46c>
/home/neu/Desktop/OPTEE/source/public/optee_src/optee/optee_os/lib/libutils/ext/snprintk.c:411
     f38:	37f800e4 	tbnz	w4, #31, f54 <kprintf.constprop.0+0x4dc>
     f3c:	91003c73 	add	x19, x3, #0xf
     f40:	2a0403f4 	mov	w20, w4
     f44:	927df273 	and	x19, x19, #0xfffffffffffffff8
     f48:	f9400060 	ldr	x0, [x3]
     f4c:	b9000019 	str	w25, [x0]
     f50:	17fffee6 	b	ae8 <kprintf.constprop.0+0x70>
     f54:	11002094 	add	w20, w4, #0x8
     f58:	7100029f 	cmp	w20, #0x0
     f5c:	5400008d 	b.le	f6c <kprintf.constprop.0+0x4f4>
     f60:	91003c73 	add	x19, x3, #0xf
     f64:	927df273 	and	x19, x19, #0xfffffffffffffff8
     f68:	17fffff8 	b	f48 <kprintf.constprop.0+0x4d0>
     f6c:	aa0303f3 	mov	x19, x3
     f70:	8b24c343 	add	x3, x26, w4, sxtw
     f74:	17fffff5 	b	f48 <kprintf.constprop.0+0x4d0>
/home/neu/Desktop/OPTEE/source/public/optee_src/optee/optee_os/lib/libutils/ext/snprintk.c:414
     f78:	321c02b5 	orr	w21, w21, #0x10
/home/neu/Desktop/OPTEE/source/public/optee_src/optee/optee_os/lib/libutils/ext/snprintk.c:417
     f7c:	36380355 	tbz	w21, #7, fe4 <kprintf.constprop.0+0x56c>
     f80:	37f80484 	tbnz	w4, #31, 1010 <kprintf.constprop.0+0x598>
     f84:	91003c73 	add	x19, x3, #0xf
     f88:	2a0403f4 	mov	w20, w4
     f8c:	927df273 	and	x19, x19, #0xfffffffffffffff8
     f90:	f9400062 	ldr	x2, [x3]
/home/neu/Desktop/OPTEE/source/public/optee_src/optee/optee_os/lib/libutils/ext/snprintk.c:494
     f94:	310004bf 	cmn	w5, #0x1
     f98:	52800001 	mov	w1, #0x0                   	// #0
     f9c:	54002b01 	b.ne	14fc <kprintf.constprop.0+0xa84>  // b.any
/home/neu/Desktop/OPTEE/source/public/optee_src/optee/optee_os/lib/libutils/ext/snprintk.c:502
     fa0:	91009583 	add	x3, x12, #0x25
/home/neu/Desktop/OPTEE/source/public/optee_src/optee/optee_os/lib/libutils/ext/snprintk.c:512
     fa4:	12000840 	and	w0, w2, #0x7
     fa8:	aa0303e4 	mov	x4, x3
     fac:	1100c000 	add	w0, w0, #0x30
     fb0:	381ffc60 	strb	w0, [x3, #-1]!
/home/neu/Desktop/OPTEE/source/public/optee_src/optee/optee_os/lib/libutils/ext/snprintk.c:513
     fb4:	d343fc42 	lsr	x2, x2, #3
/home/neu/Desktop/OPTEE/source/public/optee_src/optee/optee_os/lib/libutils/ext/snprintk.c:514
     fb8:	b5ffff62 	cbnz	x2, fa4 <kprintf.constprop.0+0x52c>
/home/neu/Desktop/OPTEE/source/public/optee_src/optee/optee_os/lib/libutils/ext/snprintk.c:516
     fbc:	360000d5 	tbz	w21, #0, fd4 <kprintf.constprop.0+0x55c>
     fc0:	7100c01f 	cmp	w0, #0x30
     fc4:	54000080 	b.eq	fd4 <kprintf.constprop.0+0x55c>  // b.none
/home/neu/Desktop/OPTEE/source/public/optee_src/optee/optee_os/lib/libutils/ext/snprintk.c:517
     fc8:	52800600 	mov	w0, #0x30                  	// #48
     fcc:	381ff060 	sturb	w0, [x3, #-1]
     fd0:	d1000883 	sub	x3, x4, #0x2
/home/neu/Desktop/OPTEE/source/public/optee_src/optee/optee_os/lib/libutils/ext/snprintk.c:543
     fd4:	91009580 	add	x0, x12, #0x25
     fd8:	2a0503e6 	mov	w6, w5
     fdc:	4b030005 	sub	w5, w0, w3
     fe0:	1400005b 	b	114c <kprintf.constprop.0+0x6d4>
/home/neu/Desktop/OPTEE/source/public/optee_src/optee/optee_os/lib/libutils/ext/snprintk.c:417
     fe4:	3747fcf5 	tbnz	w21, #8, f80 <kprintf.constprop.0+0x508>
     fe8:	374ffcd5 	tbnz	w21, #9, f80 <kprintf.constprop.0+0x508>
     fec:	372ffcb5 	tbnz	w21, #5, f80 <kprintf.constprop.0+0x508>
     ff0:	3727fc95 	tbnz	w21, #4, f80 <kprintf.constprop.0+0x508>
     ff4:	36300335 	tbz	w21, #6, 1058 <kprintf.constprop.0+0x5e0>
     ff8:	37f801e4 	tbnz	w4, #31, 1034 <kprintf.constprop.0+0x5bc>
     ffc:	91002c73 	add	x19, x3, #0xb
    1000:	2a0403f4 	mov	w20, w4
    1004:	927df273 	and	x19, x19, #0xfffffffffffffff8
    1008:	79400062 	ldrh	w2, [x3]
    100c:	17ffffe2 	b	f94 <kprintf.constprop.0+0x51c>
    1010:	11002094 	add	w20, w4, #0x8
    1014:	7100029f 	cmp	w20, #0x0
    1018:	5400008d 	b.le	1028 <kprintf.constprop.0+0x5b0>
    101c:	91003c73 	add	x19, x3, #0xf
    1020:	927df273 	and	x19, x19, #0xfffffffffffffff8
    1024:	17ffffdb 	b	f90 <kprintf.constprop.0+0x518>
    1028:	aa0303f3 	mov	x19, x3
    102c:	8b24c343 	add	x3, x26, w4, sxtw
    1030:	17ffffd8 	b	f90 <kprintf.constprop.0+0x518>
    1034:	11002094 	add	w20, w4, #0x8
    1038:	7100029f 	cmp	w20, #0x0
    103c:	5400008d 	b.le	104c <kprintf.constprop.0+0x5d4>
    1040:	91002c73 	add	x19, x3, #0xb
    1044:	927df273 	and	x19, x19, #0xfffffffffffffff8
    1048:	17fffff0 	b	1008 <kprintf.constprop.0+0x590>
    104c:	aa0303f3 	mov	x19, x3
    1050:	8b24c343 	add	x3, x26, w4, sxtw
    1054:	17ffffed 	b	1008 <kprintf.constprop.0+0x590>
    1058:	37f800c4 	tbnz	w4, #31, 1070 <kprintf.constprop.0+0x5f8>
    105c:	91002c73 	add	x19, x3, #0xb
    1060:	2a0403f4 	mov	w20, w4
    1064:	927df273 	and	x19, x19, #0xfffffffffffffff8
    1068:	b9400062 	ldr	w2, [x3]
    106c:	17ffffca 	b	f94 <kprintf.constprop.0+0x51c>
    1070:	11002094 	add	w20, w4, #0x8
    1074:	7100029f 	cmp	w20, #0x0
    1078:	5400008d 	b.le	1088 <kprintf.constprop.0+0x610>
    107c:	91002c73 	add	x19, x3, #0xb
    1080:	927df273 	and	x19, x19, #0xfffffffffffffff8
    1084:	17fffff9 	b	1068 <kprintf.constprop.0+0x5f0>
    1088:	aa0303f3 	mov	x19, x3
    108c:	8b24c343 	add	x3, x26, w4, sxtw
    1090:	17fffff6 	b	1068 <kprintf.constprop.0+0x5f0>
/home/neu/Desktop/OPTEE/source/public/optee_src/optee/optee_os/lib/libutils/ext/snprintk.c:421
    1094:	b940a3e0 	ldr	w0, [sp, #160]
    1098:	34000c80 	cbz	w0, 1228 <kprintf.constprop.0+0x7b0>
    109c:	39400360 	ldrb	w0, [x27]
    10a0:	7101541f 	cmp	w0, #0x55
    10a4:	54000c21 	b.ne	1228 <kprintf.constprop.0+0x7b0>  // b.any
    10a8:	39400760 	ldrb	w0, [x27, #1]
    10ac:	7101b01f 	cmp	w0, #0x6c
    10b0:	54000bc1 	b.ne	1228 <kprintf.constprop.0+0x7b0>  // b.any
/home/neu/Desktop/OPTEE/source/public/optee_src/optee/optee_os/lib/libutils/ext/snprintk.c:426
    10b4:	91000b7b 	add	x27, x27, #0x2
/home/neu/Desktop/OPTEE/source/public/optee_src/optee/optee_os/lib/libutils/ext/snprintk.c:427
    10b8:	37f80a64 	tbnz	w4, #31, 1204 <kprintf.constprop.0+0x78c>
    10bc:	91003c73 	add	x19, x3, #0xf
    10c0:	2a0403f4 	mov	w20, w4
    10c4:	927df273 	and	x19, x19, #0xfffffffffffffff8
    10c8:	f9400060 	ldr	x0, [x3]
uuid2str():
/home/neu/Desktop/OPTEE/source/public/optee_src/optee/optee_os/lib/libutils/ext/snprintk.c:229
    10cc:	90000082 	adrp	x2, 11000 <__text_end+0x2998>
    10d0:	91384842 	add	x2, x2, #0xe12
    10d4:	f9004fec 	str	x12, [sp, #152]
    10d8:	b900a7ea 	str	w10, [sp, #164]
    10dc:	39403c01 	ldrb	w1, [x0, #15]
    10e0:	39402006 	ldrb	w6, [x0, #8]
    10e4:	79400c05 	ldrh	w5, [x0, #6]
    10e8:	39402407 	ldrb	w7, [x0, #9]
    10ec:	79400804 	ldrh	w4, [x0, #4]
    10f0:	b9002be1 	str	w1, [sp, #40]
    10f4:	f90057e8 	str	x8, [sp, #168]
    10f8:	39403801 	ldrb	w1, [x0, #14]
    10fc:	b90023e1 	str	w1, [sp, #32]
    1100:	39403401 	ldrb	w1, [x0, #13]
    1104:	b9001be1 	str	w1, [sp, #24]
    1108:	39403001 	ldrb	w1, [x0, #12]
    110c:	b90013e1 	str	w1, [sp, #16]
    1110:	39402c01 	ldrb	w1, [x0, #11]
    1114:	b9000be1 	str	w1, [sp, #8]
    1118:	39402801 	ldrb	w1, [x0, #10]
    111c:	b90003e1 	str	w1, [sp]
    1120:	d28004a1 	mov	x1, #0x25                  	// #37
    1124:	b9400003 	ldr	w3, [x0]
    1128:	aa0c03e0 	mov	x0, x12
    112c:	97fffe20 	bl	9ac <snprintk>
    1130:	2a0003e5 	mov	w5, w0
kprintf():
/home/neu/Desktop/OPTEE/source/public/optee_src/optee/optee_os/lib/libutils/ext/snprintk.c:429
    1134:	f9404fec 	ldr	x12, [sp, #152]
/home/neu/Desktop/OPTEE/source/public/optee_src/optee/optee_os/lib/libutils/ext/snprintk.c:291
    1138:	52800006 	mov	w6, #0x0                   	// #0
/home/neu/Desktop/OPTEE/source/public/optee_src/optee/optee_os/lib/libutils/ext/snprintk.c:431
    113c:	b940a7ea 	ldr	w10, [sp, #164]
/home/neu/Desktop/OPTEE/source/public/optee_src/optee/optee_os/lib/libutils/ext/snprintk.c:430
    1140:	52800001 	mov	w1, #0x0                   	// #0
/home/neu/Desktop/OPTEE/source/public/optee_src/optee/optee_os/lib/libutils/ext/snprintk.c:431
    1144:	f94057e8 	ldr	x8, [sp, #168]
/home/neu/Desktop/OPTEE/source/public/optee_src/optee/optee_os/lib/libutils/ext/snprintk.c:429
    1148:	aa0c03e3 	mov	x3, x12
/home/neu/Desktop/OPTEE/source/public/optee_src/optee/optee_os/lib/libutils/ext/snprintk.c:571
    114c:	6b0500df 	cmp	w6, w5
    1150:	1a85a0c4 	csel	w4, w6, w5, ge  // ge = tcont
/home/neu/Desktop/OPTEE/source/public/optee_src/optee/optee_os/lib/libutils/ext/snprintk.c:572
    1154:	340020c1 	cbz	w1, 156c <kprintf.constprop.0+0xaf4>
/home/neu/Desktop/OPTEE/source/public/optee_src/optee/optee_os/lib/libutils/ext/snprintk.c:573
    1158:	11000484 	add	w4, w4, #0x1
/home/neu/Desktop/OPTEE/source/public/optee_src/optee/optee_os/lib/libutils/ext/snprintk.c:578
    115c:	6b0a009f 	cmp	w4, w10
    1160:	1a8aa080 	csel	w0, w4, w10, ge  // ge = tcont
    1164:	0b000339 	add	w25, w25, w0
/home/neu/Desktop/OPTEE/source/public/optee_src/optee/optee_os/lib/libutils/ext/snprintk.c:581
    1168:	52808080 	mov	w0, #0x404                 	// #1028
    116c:	6a0002a0 	ands	w0, w21, w0
    1170:	540000a1 	b.ne	1184 <kprintf.constprop.0+0x70c>  // b.any
/home/neu/Desktop/OPTEE/source/public/optee_src/optee/optee_os/lib/libutils/ext/snprintk.c:582
    1174:	4b040147 	sub	w7, w10, w4
/home/neu/Desktop/OPTEE/source/public/optee_src/optee/optee_os/lib/libutils/ext/snprintk.c:584
    1178:	52800402 	mov	w2, #0x20                  	// #32
/home/neu/Desktop/OPTEE/source/public/optee_src/optee/optee_os/lib/libutils/ext/snprintk.c:583
    117c:	710000ff 	cmp	w7, #0x0
    1180:	54001fcc 	b.gt	1578 <kprintf.constprop.0+0xb00>
/home/neu/Desktop/OPTEE/source/public/optee_src/optee/optee_os/lib/libutils/ext/snprintk.c:588
    1184:	34002081 	cbz	w1, 1594 <kprintf.constprop.0+0xb1c>
/home/neu/Desktop/OPTEE/source/public/optee_src/optee/optee_os/lib/libutils/ext/snprintk.c:589
    1188:	b40000b6 	cbz	x22, 119c <kprintf.constprop.0+0x724>
    118c:	f100011f 	cmp	x8, #0x0
    1190:	fa561302 	ccmp	x24, x22, #0x2, ne  // ne = any
    1194:	54000049 	b.ls	119c <kprintf.constprop.0+0x724>  // b.plast
    1198:	380016c1 	strb	w1, [x22], #1
/home/neu/Desktop/OPTEE/source/public/optee_src/optee/optee_os/lib/libutils/ext/snprintk.c:596
    119c:	7110001f 	cmp	w0, #0x400
    11a0:	540000a1 	b.ne	11b4 <kprintf.constprop.0+0x73c>  // b.any
/home/neu/Desktop/OPTEE/source/public/optee_src/optee/optee_os/lib/libutils/ext/snprintk.c:597
    11a4:	4b040140 	sub	w0, w10, w4
/home/neu/Desktop/OPTEE/source/public/optee_src/optee/optee_os/lib/libutils/ext/snprintk.c:599
    11a8:	52800601 	mov	w1, #0x30                  	// #48
/home/neu/Desktop/OPTEE/source/public/optee_src/optee/optee_os/lib/libutils/ext/snprintk.c:598
    11ac:	7100001f 	cmp	w0, #0x0
    11b0:	5400216c 	b.gt	15dc <kprintf.constprop.0+0xb64>
/home/neu/Desktop/OPTEE/source/public/optee_src/optee/optee_os/lib/libutils/ext/snprintk.c:603
    11b4:	4b0500c6 	sub	w6, w6, w5
/home/neu/Desktop/OPTEE/source/public/optee_src/optee/optee_os/lib/libutils/ext/snprintk.c:605
    11b8:	52800600 	mov	w0, #0x30                  	// #48
/home/neu/Desktop/OPTEE/source/public/optee_src/optee/optee_os/lib/libutils/ext/snprintk.c:604
    11bc:	710000df 	cmp	w6, #0x0
    11c0:	540021cc 	b.gt	15f8 <kprintf.constprop.0+0xb80>
    11c4:	2a0503e5 	mov	w5, w5
    11c8:	d2800001 	mov	x1, #0x0                   	// #0
/home/neu/Desktop/OPTEE/source/public/optee_src/optee/optee_os/lib/libutils/ext/snprintk.c:608
    11cc:	eb05003f 	cmp	x1, x5
    11d0:	54002221 	b.ne	1614 <kprintf.constprop.0+0xb9c>  // b.any
/home/neu/Desktop/OPTEE/source/public/optee_src/optee/optee_os/lib/libutils/ext/snprintk.c:611
    11d4:	3617c8b5 	tbz	w21, #2, ae8 <kprintf.constprop.0+0x70>
/home/neu/Desktop/OPTEE/source/public/optee_src/optee/optee_os/lib/libutils/ext/snprintk.c:612
    11d8:	4b04014a 	sub	w10, w10, w4
/home/neu/Desktop/OPTEE/source/public/optee_src/optee/optee_os/lib/libutils/ext/snprintk.c:614
    11dc:	52800400 	mov	w0, #0x20                  	// #32
/home/neu/Desktop/OPTEE/source/public/optee_src/optee/optee_os/lib/libutils/ext/snprintk.c:613
    11e0:	7100015f 	cmp	w10, #0x0
    11e4:	54ffc82d 	b.le	ae8 <kprintf.constprop.0+0x70>
/home/neu/Desktop/OPTEE/source/public/optee_src/optee/optee_os/lib/libutils/ext/snprintk.c:614
    11e8:	b40000b6 	cbz	x22, 11fc <kprintf.constprop.0+0x784>
    11ec:	f100011f 	cmp	x8, #0x0
    11f0:	fa561302 	ccmp	x24, x22, #0x2, ne  // ne = any
    11f4:	54000049 	b.ls	11fc <kprintf.constprop.0+0x784>  // b.plast
    11f8:	380016c0 	strb	w0, [x22], #1
    11fc:	5100054a 	sub	w10, w10, #0x1
    1200:	17fffff8 	b	11e0 <kprintf.constprop.0+0x768>
/home/neu/Desktop/OPTEE/source/public/optee_src/optee/optee_os/lib/libutils/ext/snprintk.c:427
    1204:	11002094 	add	w20, w4, #0x8
    1208:	7100029f 	cmp	w20, #0x0
    120c:	5400008d 	b.le	121c <kprintf.constprop.0+0x7a4>
    1210:	91003c73 	add	x19, x3, #0xf
    1214:	927df273 	and	x19, x19, #0xfffffffffffffff8
    1218:	17ffffac 	b	10c8 <kprintf.constprop.0+0x650>
    121c:	aa0303f3 	mov	x19, x3
    1220:	8b24c343 	add	x3, x26, w4, sxtw
    1224:	17ffffa9 	b	10c8 <kprintf.constprop.0+0x650>
/home/neu/Desktop/OPTEE/source/public/optee_src/optee/optee_os/lib/libutils/ext/snprintk.c:441
    1228:	37f801e4 	tbnz	w4, #31, 1264 <kprintf.constprop.0+0x7ec>
    122c:	91003c73 	add	x19, x3, #0xf
    1230:	2a0403f4 	mov	w20, w4
    1234:	927df273 	and	x19, x19, #0xfffffffffffffff8
/home/neu/Desktop/OPTEE/source/public/optee_src/optee/optee_os/lib/libutils/ext/snprintk.c:443
    1238:	90000097 	adrp	x23, 11000 <__text_end+0x2998>
    123c:	911eaaf7 	add	x23, x23, #0x7aa
/home/neu/Desktop/OPTEE/source/public/optee_src/optee/optee_os/lib/libutils/ext/snprintk.c:441
    1240:	f9400062 	ldr	x2, [x3]
/home/neu/Desktop/OPTEE/source/public/optee_src/optee/optee_os/lib/libutils/ext/snprintk.c:444
    1244:	321f02b5 	orr	w21, w21, #0x2
/home/neu/Desktop/OPTEE/source/public/optee_src/optee/optee_os/lib/libutils/ext/snprintk.c:443
    1248:	910046f7 	add	x23, x23, #0x11
/home/neu/Desktop/OPTEE/source/public/optee_src/optee/optee_os/lib/libutils/ext/snprintk.c:445
    124c:	52800f1c 	mov	w28, #0x78                  	// #120
/home/neu/Desktop/OPTEE/source/public/optee_src/optee/optee_os/lib/libutils/ext/snprintk.c:494
    1250:	310004bf 	cmn	w5, #0x1
    1254:	52800001 	mov	w1, #0x0                   	// #0
    1258:	54ffdbc0 	b.eq	dd0 <kprintf.constprop.0+0x358>  // b.none
    125c:	52800040 	mov	w0, #0x2                   	// #2
    1260:	140000a8 	b	1500 <kprintf.constprop.0+0xa88>
/home/neu/Desktop/OPTEE/source/public/optee_src/optee/optee_os/lib/libutils/ext/snprintk.c:441
    1264:	11002094 	add	w20, w4, #0x8
    1268:	7100029f 	cmp	w20, #0x0
    126c:	5400008d 	b.le	127c <kprintf.constprop.0+0x804>
    1270:	91003c73 	add	x19, x3, #0xf
    1274:	927df273 	and	x19, x19, #0xfffffffffffffff8
    1278:	17fffff0 	b	1238 <kprintf.constprop.0+0x7c0>
    127c:	aa0303f3 	mov	x19, x3
    1280:	8b24c343 	add	x3, x26, w4, sxtw
    1284:	17ffffed 	b	1238 <kprintf.constprop.0+0x7c0>
/home/neu/Desktop/OPTEE/source/public/optee_src/optee/optee_os/lib/libutils/ext/snprintk.c:448
    1288:	37f80364 	tbnz	w4, #31, 12f4 <kprintf.constprop.0+0x87c>
    128c:	91003c73 	add	x19, x3, #0xf
    1290:	2a0403f4 	mov	w20, w4
    1294:	927df273 	and	x19, x19, #0xfffffffffffffff8
    1298:	f9400063 	ldr	x3, [x3]
    129c:	b5000063 	cbnz	x3, 12a8 <kprintf.constprop.0+0x830>
/home/neu/Desktop/OPTEE/source/public/optee_src/optee/optee_os/lib/libutils/ext/snprintk.c:450
    12a0:	90000083 	adrp	x3, 11000 <__text_end+0x2998>
    12a4:	91382c63 	add	x3, x3, #0xe0b
/home/neu/Desktop/OPTEE/source/public/optee_src/optee/optee_os/lib/libutils/ext/snprintk.c:451
    12a8:	310004bf 	cmn	w5, #0x1
    12ac:	54000360 	b.eq	1318 <kprintf.constprop.0+0x8a0>  // b.none
/home/neu/Desktop/OPTEE/source/public/optee_src/optee/optee_os/lib/libutils/ext/snprintk.c:457
    12b0:	93407ca2 	sxtw	x2, w5
    12b4:	aa0303e0 	mov	x0, x3
    12b8:	52800001 	mov	w1, #0x0                   	// #0
    12bc:	f9004fe3 	str	x3, [sp, #152]
    12c0:	2914abe5 	stp	w5, w10, [sp, #164]
    12c4:	a90b33e8 	stp	x8, x12, [sp, #176]
    12c8:	940000f7 	bl	16a4 <memchr>
/home/neu/Desktop/OPTEE/source/public/optee_src/optee/optee_os/lib/libutils/ext/snprintk.c:459
    12cc:	2954abe5 	ldp	w5, w10, [sp, #164]
    12d0:	f9404fe3 	ldr	x3, [sp, #152]
    12d4:	a94b33e8 	ldp	x8, x12, [sp, #176]
    12d8:	b4000080 	cbz	x0, 12e8 <kprintf.constprop.0+0x870>
/home/neu/Desktop/OPTEE/source/public/optee_src/optee/optee_os/lib/libutils/ext/snprintk.c:460
    12dc:	cb030000 	sub	x0, x0, x3
    12e0:	6b0000bf 	cmp	w5, w0
    12e4:	1a80d0a5 	csel	w5, w5, w0, le
/home/neu/Desktop/OPTEE/source/public/optee_src/optee/optee_os/lib/libutils/ext/snprintk.c:291
    12e8:	52800006 	mov	w6, #0x0                   	// #0
/home/neu/Desktop/OPTEE/source/public/optee_src/optee/optee_os/lib/libutils/ext/snprintk.c:467
    12ec:	52800001 	mov	w1, #0x0                   	// #0
    12f0:	17ffff97 	b	114c <kprintf.constprop.0+0x6d4>
/home/neu/Desktop/OPTEE/source/public/optee_src/optee/optee_os/lib/libutils/ext/snprintk.c:448
    12f4:	11002094 	add	w20, w4, #0x8
    12f8:	7100029f 	cmp	w20, #0x0
    12fc:	5400008d 	b.le	130c <kprintf.constprop.0+0x894>
    1300:	91003c73 	add	x19, x3, #0xf
    1304:	927df273 	and	x19, x19, #0xfffffffffffffff8
    1308:	17ffffe4 	b	1298 <kprintf.constprop.0+0x820>
    130c:	aa0303f3 	mov	x19, x3
    1310:	8b24c343 	add	x3, x26, w4, sxtw
    1314:	17ffffe1 	b	1298 <kprintf.constprop.0+0x820>
/home/neu/Desktop/OPTEE/source/public/optee_src/optee/optee_os/lib/libutils/ext/snprintk.c:466
    1318:	aa0303e0 	mov	x0, x3
    131c:	f9004fe3 	str	x3, [sp, #152]
    1320:	b900a7ea 	str	w10, [sp, #164]
    1324:	a90ab3e8 	stp	x8, x12, [sp, #168]
    1328:	940000ea 	bl	16d0 <strlen>
    132c:	b940a7ea 	ldr	w10, [sp, #164]
    1330:	2a0003e5 	mov	w5, w0
/home/neu/Desktop/OPTEE/source/public/optee_src/optee/optee_os/lib/libutils/ext/snprintk.c:291
    1334:	52800006 	mov	w6, #0x0                   	// #0
/home/neu/Desktop/OPTEE/source/public/optee_src/optee/optee_os/lib/libutils/ext/snprintk.c:467
    1338:	52800001 	mov	w1, #0x0                   	// #0
    133c:	f9404fe3 	ldr	x3, [sp, #152]
    1340:	a94ab3e8 	ldp	x8, x12, [sp, #168]
    1344:	17ffff82 	b	114c <kprintf.constprop.0+0x6d4>
/home/neu/Desktop/OPTEE/source/public/optee_src/optee/optee_os/lib/libutils/ext/snprintk.c:470
    1348:	321c02b5 	orr	w21, w21, #0x10
/home/neu/Desktop/OPTEE/source/public/optee_src/optee/optee_os/lib/libutils/ext/snprintk.c:473
    134c:	36380235 	tbz	w21, #7, 1390 <kprintf.constprop.0+0x918>
    1350:	37f80364 	tbnz	w4, #31, 13bc <kprintf.constprop.0+0x944>
    1354:	91003c73 	add	x19, x3, #0xf
    1358:	2a0403f4 	mov	w20, w4
    135c:	927df273 	and	x19, x19, #0xfffffffffffffff8
    1360:	f9400062 	ldr	x2, [x3]
/home/neu/Desktop/OPTEE/source/public/optee_src/optee/optee_os/lib/libutils/ext/snprintk.c:488
    1364:	52800001 	mov	w1, #0x0                   	// #0
/home/neu/Desktop/OPTEE/source/public/optee_src/optee/optee_os/lib/libutils/ext/snprintk.c:494
    1368:	310004bf 	cmn	w5, #0x1
    136c:	54000d81 	b.ne	151c <kprintf.constprop.0+0xaa4>  // b.any
/home/neu/Desktop/OPTEE/source/public/optee_src/optee/optee_os/lib/libutils/ext/snprintk.c:502
    1370:	91009580 	add	x0, x12, #0x25
/home/neu/Desktop/OPTEE/source/public/optee_src/optee/optee_os/lib/libutils/ext/snprintk.c:523
    1374:	d2800144 	mov	x4, #0xa                   	// #10
/home/neu/Desktop/OPTEE/source/public/optee_src/optee/optee_os/lib/libutils/ext/snprintk.c:522
    1378:	d1000403 	sub	x3, x0, #0x1
    137c:	f100245f 	cmp	x2, #0x9
    1380:	54000d28 	b.hi	1524 <kprintf.constprop.0+0xaac>  // b.pmore
/home/neu/Desktop/OPTEE/source/public/optee_src/optee/optee_os/lib/libutils/ext/snprintk.c:526
    1384:	1100c042 	add	w2, w2, #0x30
    1388:	381ff002 	sturb	w2, [x0, #-1]
/home/neu/Desktop/OPTEE/source/public/optee_src/optee/optee_os/lib/libutils/ext/snprintk.c:527
    138c:	17ffff12 	b	fd4 <kprintf.constprop.0+0x55c>
/home/neu/Desktop/OPTEE/source/public/optee_src/optee/optee_os/lib/libutils/ext/snprintk.c:473
    1390:	3747fe15 	tbnz	w21, #8, 1350 <kprintf.constprop.0+0x8d8>
    1394:	374ffdf5 	tbnz	w21, #9, 1350 <kprintf.constprop.0+0x8d8>
    1398:	372ffdd5 	tbnz	w21, #5, 1350 <kprintf.constprop.0+0x8d8>
    139c:	3727fdb5 	tbnz	w21, #4, 1350 <kprintf.constprop.0+0x8d8>
    13a0:	36300335 	tbz	w21, #6, 1404 <kprintf.constprop.0+0x98c>
    13a4:	37f801e4 	tbnz	w4, #31, 13e0 <kprintf.constprop.0+0x968>
    13a8:	91002c73 	add	x19, x3, #0xb
    13ac:	2a0403f4 	mov	w20, w4
    13b0:	927df273 	and	x19, x19, #0xfffffffffffffff8
    13b4:	79400062 	ldrh	w2, [x3]
    13b8:	17ffffeb 	b	1364 <kprintf.constprop.0+0x8ec>
    13bc:	11002094 	add	w20, w4, #0x8
    13c0:	7100029f 	cmp	w20, #0x0
    13c4:	5400008d 	b.le	13d4 <kprintf.constprop.0+0x95c>
    13c8:	91003c73 	add	x19, x3, #0xf
    13cc:	927df273 	and	x19, x19, #0xfffffffffffffff8
    13d0:	17ffffe4 	b	1360 <kprintf.constprop.0+0x8e8>
    13d4:	aa0303f3 	mov	x19, x3
    13d8:	8b24c343 	add	x3, x26, w4, sxtw
    13dc:	17ffffe1 	b	1360 <kprintf.constprop.0+0x8e8>
    13e0:	11002094 	add	w20, w4, #0x8
    13e4:	7100029f 	cmp	w20, #0x0
    13e8:	5400008d 	b.le	13f8 <kprintf.constprop.0+0x980>
    13ec:	91002c73 	add	x19, x3, #0xb
    13f0:	927df273 	and	x19, x19, #0xfffffffffffffff8
    13f4:	17fffff0 	b	13b4 <kprintf.constprop.0+0x93c>
    13f8:	aa0303f3 	mov	x19, x3
    13fc:	8b24c343 	add	x3, x26, w4, sxtw
    1400:	17ffffed 	b	13b4 <kprintf.constprop.0+0x93c>
    1404:	37f800c4 	tbnz	w4, #31, 141c <kprintf.constprop.0+0x9a4>
    1408:	91002c73 	add	x19, x3, #0xb
    140c:	2a0403f4 	mov	w20, w4
    1410:	927df273 	and	x19, x19, #0xfffffffffffffff8
    1414:	b9400062 	ldr	w2, [x3]
    1418:	17ffffd3 	b	1364 <kprintf.constprop.0+0x8ec>
    141c:	11002094 	add	w20, w4, #0x8
    1420:	7100029f 	cmp	w20, #0x0
    1424:	5400008d 	b.le	1434 <kprintf.constprop.0+0x9bc>
    1428:	91002c73 	add	x19, x3, #0xb
    142c:	927df273 	and	x19, x19, #0xfffffffffffffff8
    1430:	17fffff9 	b	1414 <kprintf.constprop.0+0x99c>
    1434:	aa0303f3 	mov	x19, x3
    1438:	8b24c343 	add	x3, x26, w4, sxtw
    143c:	17fffff6 	b	1414 <kprintf.constprop.0+0x99c>
/home/neu/Desktop/OPTEE/source/public/optee_src/optee/optee_os/lib/libutils/ext/snprintk.c:477
    1440:	90000097 	adrp	x23, 11000 <__text_end+0x2998>
    1444:	911eaaf7 	add	x23, x23, #0x7aa
    1448:	17fffdd9 	b	bac <kprintf.constprop.0+0x134>
/home/neu/Desktop/OPTEE/source/public/optee_src/optee/optee_os/lib/libutils/ext/snprintk.c:481
    144c:	3747bb35 	tbnz	w21, #8, bb0 <kprintf.constprop.0+0x138>
    1450:	374fbb15 	tbnz	w21, #9, bb0 <kprintf.constprop.0+0x138>
    1454:	372fbaf5 	tbnz	w21, #5, bb0 <kprintf.constprop.0+0x138>
    1458:	3727bad5 	tbnz	w21, #4, bb0 <kprintf.constprop.0+0x138>
    145c:	36300335 	tbz	w21, #6, 14c0 <kprintf.constprop.0+0xa48>
    1460:	37f801e4 	tbnz	w4, #31, 149c <kprintf.constprop.0+0xa24>
    1464:	91002c73 	add	x19, x3, #0xb
    1468:	2a0403f4 	mov	w20, w4
    146c:	927df273 	and	x19, x19, #0xfffffffffffffff8
    1470:	79400062 	ldrh	w2, [x3]
    1474:	17fffdd4 	b	bc4 <kprintf.constprop.0+0x14c>
    1478:	11002094 	add	w20, w4, #0x8
    147c:	7100029f 	cmp	w20, #0x0
    1480:	5400008d 	b.le	1490 <kprintf.constprop.0+0xa18>
    1484:	91003c73 	add	x19, x3, #0xf
    1488:	927df273 	and	x19, x19, #0xfffffffffffffff8
    148c:	17fffdcd 	b	bc0 <kprintf.constprop.0+0x148>
    1490:	aa0303f3 	mov	x19, x3
    1494:	8b24c343 	add	x3, x26, w4, sxtw
    1498:	17fffdca 	b	bc0 <kprintf.constprop.0+0x148>
    149c:	11002094 	add	w20, w4, #0x8
    14a0:	7100029f 	cmp	w20, #0x0
    14a4:	5400008d 	b.le	14b4 <kprintf.constprop.0+0xa3c>
    14a8:	91002c73 	add	x19, x3, #0xb
    14ac:	927df273 	and	x19, x19, #0xfffffffffffffff8
    14b0:	17fffff0 	b	1470 <kprintf.constprop.0+0x9f8>
    14b4:	aa0303f3 	mov	x19, x3
    14b8:	8b24c343 	add	x3, x26, w4, sxtw
    14bc:	17ffffed 	b	1470 <kprintf.constprop.0+0x9f8>
    14c0:	37f800c4 	tbnz	w4, #31, 14d8 <kprintf.constprop.0+0xa60>
    14c4:	91002c73 	add	x19, x3, #0xb
    14c8:	2a0403f4 	mov	w20, w4
    14cc:	927df273 	and	x19, x19, #0xfffffffffffffff8
    14d0:	b9400062 	ldr	w2, [x3]
    14d4:	17fffdbc 	b	bc4 <kprintf.constprop.0+0x14c>
    14d8:	11002094 	add	w20, w4, #0x8
    14dc:	7100029f 	cmp	w20, #0x0
    14e0:	5400008d 	b.le	14f0 <kprintf.constprop.0+0xa78>
    14e4:	91002c73 	add	x19, x3, #0xb
    14e8:	927df273 	and	x19, x19, #0xfffffffffffffff8
    14ec:	17fffff9 	b	14d0 <kprintf.constprop.0+0xa58>
    14f0:	aa0303f3 	mov	x19, x3
    14f4:	8b24c343 	add	x3, x26, w4, sxtw
    14f8:	17fffff6 	b	14d0 <kprintf.constprop.0+0xa58>
/home/neu/Desktop/OPTEE/source/public/optee_src/optee/optee_os/lib/libutils/ext/snprintk.c:494
    14fc:	52800000 	mov	w0, #0x0                   	// #0
/home/neu/Desktop/OPTEE/source/public/optee_src/optee/optee_os/lib/libutils/ext/snprintk.c:503
    1500:	f100005f 	cmp	x2, #0x0
/home/neu/Desktop/OPTEE/source/public/optee_src/optee/optee_os/lib/libutils/ext/snprintk.c:495
    1504:	12157ab5 	and	w21, w21, #0xfffffbff
/home/neu/Desktop/OPTEE/source/public/optee_src/optee/optee_os/lib/libutils/ext/snprintk.c:503
    1508:	7a4008a0 	ccmp	w5, #0x0, #0x0, eq  // eq = none
    150c:	54ffc5a1 	b.ne	dc0 <kprintf.constprop.0+0x348>  // b.any
/home/neu/Desktop/OPTEE/source/public/optee_src/optee/optee_os/lib/libutils/ext/snprintk.c:502
    1510:	91009583 	add	x3, x12, #0x25
/home/neu/Desktop/OPTEE/source/public/optee_src/optee/optee_os/lib/libutils/ext/snprintk.c:542
    1514:	52800005 	mov	w5, #0x0                   	// #0
    1518:	17fffeaf 	b	fd4 <kprintf.constprop.0+0x55c>
/home/neu/Desktop/OPTEE/source/public/optee_src/optee/optee_os/lib/libutils/ext/snprintk.c:494
    151c:	52800020 	mov	w0, #0x1                   	// #1
    1520:	17fffff8 	b	1500 <kprintf.constprop.0+0xa88>
/home/neu/Desktop/OPTEE/source/public/optee_src/optee/optee_os/lib/libutils/ext/snprintk.c:523
    1524:	9ac40846 	udiv	x6, x2, x4
    1528:	9b0488c2 	msub	x2, x6, x4, x2
    152c:	1100c042 	add	w2, w2, #0x30
    1530:	381ff002 	sturb	w2, [x0, #-1]
/home/neu/Desktop/OPTEE/source/public/optee_src/optee/optee_os/lib/libutils/ext/snprintk.c:524
    1534:	aa0603e2 	mov	x2, x6
    1538:	aa0303e0 	mov	x0, x3
    153c:	17ffff8f 	b	1378 <kprintf.constprop.0+0x900>
/home/neu/Desktop/OPTEE/source/public/optee_src/optee/optee_os/lib/libutils/ext/snprintk.c:547
    1540:	35ffb55c 	cbnz	w28, be8 <kprintf.constprop.0+0x170>
/home/neu/Desktop/OPTEE/source/public/optee_src/optee/optee_os/lib/libutils/ext/snprintk.c:619
    1544:	b4000048 	cbz	x8, 154c <kprintf.constprop.0+0xad4>
/home/neu/Desktop/OPTEE/source/public/optee_src/optee/optee_os/lib/libutils/ext/snprintk.c:620
    1548:	f9000116 	str	x22, [x8]
/home/neu/Desktop/OPTEE/source/public/optee_src/optee/optee_os/lib/libutils/ext/snprintk.c:622
    154c:	d0000080 	adrp	x0, 13000 <_DYNAMIC>
    1550:	f9409800 	ldr	x0, [x0, #304]
    1554:	f94077e1 	ldr	x1, [sp, #232]
    1558:	f9400002 	ldr	x2, [x0]
    155c:	eb020021 	subs	x1, x1, x2
    1560:	d2800002 	mov	x2, #0x0                   	// #0
    1564:	54000680 	b.eq	1634 <kprintf.constprop.0+0xbbc>  // b.none
    1568:	97fffbf4 	bl	538 <__stack_chk_fail>
/home/neu/Desktop/OPTEE/source/public/optee_src/optee/optee_os/lib/libutils/ext/snprintk.c:574
    156c:	360fdf95 	tbz	w21, #1, 115c <kprintf.constprop.0+0x6e4>
/home/neu/Desktop/OPTEE/source/public/optee_src/optee/optee_os/lib/libutils/ext/snprintk.c:575
    1570:	11000884 	add	w4, w4, #0x2
    1574:	17fffefa 	b	115c <kprintf.constprop.0+0x6e4>
/home/neu/Desktop/OPTEE/source/public/optee_src/optee/optee_os/lib/libutils/ext/snprintk.c:584
    1578:	b40000b6 	cbz	x22, 158c <kprintf.constprop.0+0xb14>
    157c:	f100011f 	cmp	x8, #0x0
    1580:	fa561302 	ccmp	x24, x22, #0x2, ne  // ne = any
    1584:	54000049 	b.ls	158c <kprintf.constprop.0+0xb14>  // b.plast
    1588:	380016c2 	strb	w2, [x22], #1
    158c:	510004e7 	sub	w7, w7, #0x1
    1590:	17fffefb 	b	117c <kprintf.constprop.0+0x704>
/home/neu/Desktop/OPTEE/source/public/optee_src/optee/optee_os/lib/libutils/ext/snprintk.c:590
    1594:	360fe055 	tbz	w21, #1, 119c <kprintf.constprop.0+0x724>
/home/neu/Desktop/OPTEE/source/public/optee_src/optee/optee_os/lib/libutils/ext/snprintk.c:591
    1598:	b4ffe036 	cbz	x22, 119c <kprintf.constprop.0+0x724>
    159c:	f100011f 	cmp	x8, #0x0
    15a0:	1a9f17e2 	cset	w2, eq  // eq = none
    15a4:	7100005f 	cmp	w2, #0x0
    15a8:	fa560302 	ccmp	x24, x22, #0x2, eq  // eq = none
    15ac:	54ffdf89 	b.ls	119c <kprintf.constprop.0+0x724>  // b.plast
    15b0:	aa1603e1 	mov	x1, x22
    15b4:	52800607 	mov	w7, #0x30                  	// #48
/home/neu/Desktop/OPTEE/source/public/optee_src/optee/optee_os/lib/libutils/ext/snprintk.c:592
    15b8:	7100005f 	cmp	w2, #0x0
/home/neu/Desktop/OPTEE/source/public/optee_src/optee/optee_os/lib/libutils/ext/snprintk.c:591
    15bc:	38001427 	strb	w7, [x1], #1
/home/neu/Desktop/OPTEE/source/public/optee_src/optee/optee_os/lib/libutils/ext/snprintk.c:592
    15c0:	fa410302 	ccmp	x24, x1, #0x2, eq  // eq = none
    15c4:	54000089 	b.ls	15d4 <kprintf.constprop.0+0xb5c>  // b.plast
    15c8:	91000ad6 	add	x22, x22, #0x2
    15cc:	381ff2dc 	sturb	w28, [x22, #-1]
    15d0:	17fffef3 	b	119c <kprintf.constprop.0+0x724>
    15d4:	aa0103f6 	mov	x22, x1
    15d8:	17fffef1 	b	119c <kprintf.constprop.0+0x724>
/home/neu/Desktop/OPTEE/source/public/optee_src/optee/optee_os/lib/libutils/ext/snprintk.c:599
    15dc:	b40000b6 	cbz	x22, 15f0 <kprintf.constprop.0+0xb78>
    15e0:	f100011f 	cmp	x8, #0x0
    15e4:	fa561302 	ccmp	x24, x22, #0x2, ne  // ne = any
    15e8:	54000049 	b.ls	15f0 <kprintf.constprop.0+0xb78>  // b.plast
    15ec:	380016c1 	strb	w1, [x22], #1
    15f0:	51000400 	sub	w0, w0, #0x1
    15f4:	17fffeee 	b	11ac <kprintf.constprop.0+0x734>
/home/neu/Desktop/OPTEE/source/public/optee_src/optee/optee_os/lib/libutils/ext/snprintk.c:605
    15f8:	b40000b6 	cbz	x22, 160c <kprintf.constprop.0+0xb94>
    15fc:	f100011f 	cmp	x8, #0x0
    1600:	fa561302 	ccmp	x24, x22, #0x2, ne  // ne = any
    1604:	54000049 	b.ls	160c <kprintf.constprop.0+0xb94>  // b.plast
    1608:	380016c0 	strb	w0, [x22], #1
    160c:	510004c6 	sub	w6, w6, #0x1
    1610:	17fffeeb 	b	11bc <kprintf.constprop.0+0x744>
/home/neu/Desktop/OPTEE/source/public/optee_src/optee/optee_os/lib/libutils/ext/snprintk.c:609
    1614:	b40000d6 	cbz	x22, 162c <kprintf.constprop.0+0xbb4>
    1618:	f100011f 	cmp	x8, #0x0
    161c:	fa561302 	ccmp	x24, x22, #0x2, ne  // ne = any
    1620:	54000069 	b.ls	162c <kprintf.constprop.0+0xbb4>  // b.plast
    1624:	38616860 	ldrb	w0, [x3, x1]
    1628:	380016c0 	strb	w0, [x22], #1
/home/neu/Desktop/OPTEE/source/public/optee_src/optee/optee_os/lib/libutils/ext/snprintk.c:608
    162c:	91000421 	add	x1, x1, #0x1
    1630:	17fffee7 	b	11cc <kprintf.constprop.0+0x754>
/home/neu/Desktop/OPTEE/source/public/optee_src/optee/optee_os/lib/libutils/ext/snprintk.c:622
    1634:	2a1903e0 	mov	w0, w25
    1638:	a9437bfd 	ldp	x29, x30, [sp, #48]
    163c:	a94453f3 	ldp	x19, x20, [sp, #64]
    1640:	a9455bf5 	ldp	x21, x22, [sp, #80]
    1644:	a94663f7 	ldp	x23, x24, [sp, #96]
    1648:	a9476bf9 	ldp	x25, x26, [sp, #112]
    164c:	a94873fb 	ldp	x27, x28, [sp, #128]
    1650:	9103c3ff 	add	sp, sp, #0xf0
    1654:	d65f03c0 	ret

0000000000001658 <__vsprintf>:
__vsprintf():
/home/neu/Desktop/OPTEE/source/public/optee_src/optee/optee_os/lib/libutils/ext/snprintk.c:155
    1658:	a9bc7bfd 	stp	x29, x30, [sp, #-64]!
/home/neu/Desktop/OPTEE/source/public/optee_src/optee/optee_os/lib/libutils/ext/snprintk.c:156
    165c:	910083e3 	add	x3, sp, #0x20
/home/neu/Desktop/OPTEE/source/public/optee_src/optee/optee_os/lib/libutils/ext/snprintk.c:155
    1660:	910003fd 	mov	x29, sp
    1664:	a90153f3 	stp	x19, x20, [sp, #16]
    1668:	aa0003f4 	mov	x20, x0
    166c:	aa0103f3 	mov	x19, x1
/home/neu/Desktop/OPTEE/source/public/optee_src/optee/optee_os/lib/libutils/ext/snprintk.c:156
    1670:	aa0303e0 	mov	x0, x3
/home/neu/Desktop/OPTEE/source/public/optee_src/optee/optee_os/lib/libutils/ext/snprintk.c:155
    1674:	aa0203e1 	mov	x1, x2
/home/neu/Desktop/OPTEE/source/public/optee_src/optee/optee_os/lib/libutils/ext/snprintk.c:156
    1678:	d2800402 	mov	x2, #0x20                  	// #32
    167c:	97fffa69 	bl	20 <memcpy>
    1680:	aa1403e2 	mov	x2, x20
    1684:	aa0003e3 	mov	x3, x0
    1688:	52800004 	mov	w4, #0x0                   	// #0
    168c:	aa1303e0 	mov	x0, x19
    1690:	d2800001 	mov	x1, #0x0                   	// #0
    1694:	97fffcf9 	bl	a78 <kprintf.constprop.0>
/home/neu/Desktop/OPTEE/source/public/optee_src/optee/optee_os/lib/libutils/ext/snprintk.c:157
    1698:	a94153f3 	ldp	x19, x20, [sp, #16]
    169c:	a8c47bfd 	ldp	x29, x30, [sp], #64
    16a0:	d65f03c0 	ret

00000000000016a4 <memchr>:
memchr():
/home/neu/Desktop/OPTEE/source/public/optee_src/optee/optee_os/lib/libutils/isoc/newlib/memchr.c:109
    16a4:	12001c21 	and	w1, w1, #0xff
/home/neu/Desktop/OPTEE/source/public/optee_src/optee/optee_os/lib/libutils/isoc/newlib/memchr.c:153
    16a8:	8b020002 	add	x2, x0, x2
    16ac:	eb02001f 	cmp	x0, x2
    16b0:	54000061 	b.ne	16bc <memchr+0x18>  // b.any
/home/neu/Desktop/OPTEE/source/public/optee_src/optee/optee_os/lib/libutils/isoc/newlib/memchr.c:159
    16b4:	d2800000 	mov	x0, #0x0                   	// #0
/home/neu/Desktop/OPTEE/source/public/optee_src/optee/optee_os/lib/libutils/isoc/newlib/memchr.c:160
    16b8:	d65f03c0 	ret
/home/neu/Desktop/OPTEE/source/public/optee_src/optee/optee_os/lib/libutils/isoc/newlib/memchr.c:154
    16bc:	39400003 	ldrb	w3, [x0]
    16c0:	6b01007f 	cmp	w3, w1
    16c4:	54ffffa0 	b.eq	16b8 <memchr+0x14>  // b.none
/home/neu/Desktop/OPTEE/source/public/optee_src/optee/optee_os/lib/libutils/isoc/newlib/memchr.c:156
    16c8:	91000400 	add	x0, x0, #0x1
    16cc:	17fffff8 	b	16ac <memchr+0x8>

00000000000016d0 <strlen>:
strlen():
/home/neu/Desktop/OPTEE/source/public/optee_src/optee/optee_os/lib/libutils/isoc/newlib/strlen.c:117
    16d0:	aa0003e1 	mov	x1, x0
    16d4:	39400022 	ldrb	w2, [x1]
    16d8:	35000062 	cbnz	w2, 16e4 <strlen+0x14>
/home/neu/Desktop/OPTEE/source/public/optee_src/optee/optee_os/lib/libutils/isoc/newlib/strlen.c:120
    16dc:	cb000020 	sub	x0, x1, x0
    16e0:	d65f03c0 	ret
/home/neu/Desktop/OPTEE/source/public/optee_src/optee/optee_os/lib/libutils/isoc/newlib/strlen.c:118
    16e4:	91000421 	add	x1, x1, #0x1
    16e8:	17fffffb 	b	16d4 <strlen+0x4>

00000000000016ec <trace_ext_puts>:
trace_ext_puts():
/home/neu/Desktop/OPTEE/source/public/optee_src/optee/optee_os/lib/libutee/trace_ext.c:22
    16ec:	a9be7bfd 	stp	x29, x30, [sp, #-32]!
    16f0:	910003fd 	mov	x29, sp
    16f4:	f9000bf3 	str	x19, [sp, #16]
    16f8:	aa0003f3 	mov	x19, x0
/home/neu/Desktop/OPTEE/source/public/optee_src/optee/optee_os/lib/libutee/trace_ext.c:26
    16fc:	97fffff5 	bl	16d0 <strlen>
    1700:	aa0003e1 	mov	x1, x0
    1704:	aa1303e0 	mov	x0, x19
/home/neu/Desktop/OPTEE/source/public/optee_src/optee/optee_os/lib/libutee/trace_ext.c:28
    1708:	f9400bf3 	ldr	x19, [sp, #16]
    170c:	a8c27bfd 	ldp	x29, x30, [sp], #32
/home/neu/Desktop/OPTEE/source/public/optee_src/optee/optee_os/lib/libutee/trace_ext.c:26
    1710:	14000ede 	b	5288 <_utee_log>

0000000000001714 <trace_ext_get_thread_id>:
trace_ext_get_thread_id():
/home/neu/Desktop/OPTEE/source/public/optee_src/optee/optee_os/lib/libutee/trace_ext.c:33
    1714:	12800000 	mov	w0, #0xffffffff            	// #-1
    1718:	d65f03c0 	ret

000000000000171c <printf>:
printf():
/home/neu/Desktop/OPTEE/source/public/optee_src/optee/optee_os/lib/libutee/trace_ext.c:41
    171c:	d108c3ff 	sub	sp, sp, #0x230
    1720:	a9007bfd 	stp	x29, x30, [sp]
    1724:	910003fd 	mov	x29, sp
    1728:	a90153f3 	stp	x19, x20, [sp, #16]
    172c:	aa0003f3 	mov	x19, x0
    1730:	910823e0 	add	x0, sp, #0x208
    1734:	a91f8be1 	stp	x1, x2, [sp, #504]
    1738:	d0000081 	adrp	x1, 13000 <_DYNAMIC>
    173c:	3d805fe0 	str	q0, [sp, #368]
    1740:	3d8063e1 	str	q1, [sp, #384]
    1744:	3d8067e2 	str	q2, [sp, #400]
    1748:	3d806be3 	str	q3, [sp, #416]
    174c:	3d806fe4 	str	q4, [sp, #432]
    1750:	3d8073e5 	str	q5, [sp, #448]
    1754:	3d8077e6 	str	q6, [sp, #464]
    1758:	3d807be7 	str	q7, [sp, #480]
    175c:	f9409821 	ldr	x1, [x1, #304]
    1760:	a9001003 	stp	x3, x4, [x0]
    1764:	a9011805 	stp	x5, x6, [x0, #16]
    1768:	f90117e7 	str	x7, [sp, #552]
    176c:	f9400020 	ldr	x0, [x1]
    1770:	f900b7e0 	str	x0, [sp, #360]
    1774:	d2800000 	mov	x0, #0x0                   	// #0
/home/neu/Desktop/OPTEE/source/public/optee_src/optee/optee_os/lib/libutee/trace_ext.c:46
    1778:	97fffb83 	bl	584 <trace_get_level>
    177c:	7100001f 	cmp	w0, #0x0
    1780:	5400040d 	b.le	1800 <printf+0xe4>
/home/neu/Desktop/OPTEE/source/public/optee_src/optee/optee_os/lib/libutee/trace_ext.c:49
    1784:	9108c3e0 	add	x0, sp, #0x230
/home/neu/Desktop/OPTEE/source/public/optee_src/optee/optee_os/lib/libutee/trace_ext.c:50
    1788:	910083e3 	add	x3, sp, #0x20
/home/neu/Desktop/OPTEE/source/public/optee_src/optee/optee_os/lib/libutee/trace_ext.c:49
    178c:	a90483e0 	stp	x0, x0, [sp, #72]
    1790:	9107c3e0 	add	x0, sp, #0x1f0
/home/neu/Desktop/OPTEE/source/public/optee_src/optee/optee_os/lib/libutee/trace_ext.c:50
    1794:	910123e1 	add	x1, sp, #0x48
/home/neu/Desktop/OPTEE/source/public/optee_src/optee/optee_os/lib/libutee/trace_ext.c:49
    1798:	f9002fe0 	str	x0, [sp, #88]
    179c:	128006e0 	mov	w0, #0xffffffc8            	// #-56
    17a0:	b90063e0 	str	w0, [sp, #96]
    17a4:	12800fe0 	mov	w0, #0xffffff80            	// #-128
/home/neu/Desktop/OPTEE/source/public/optee_src/optee/optee_os/lib/libutee/trace_ext.c:50
    17a8:	d2800402 	mov	x2, #0x20                  	// #32
    17ac:	9101a3f4 	add	x20, sp, #0x68
/home/neu/Desktop/OPTEE/source/public/optee_src/optee/optee_os/lib/libutee/trace_ext.c:49
    17b0:	b90067e0 	str	w0, [sp, #100]
/home/neu/Desktop/OPTEE/source/public/optee_src/optee/optee_os/lib/libutee/trace_ext.c:50
    17b4:	aa0303e0 	mov	x0, x3
    17b8:	97fffa1a 	bl	20 <memcpy>
    17bc:	aa0003e3 	mov	x3, x0
    17c0:	aa1303e2 	mov	x2, x19
    17c4:	aa1403e0 	mov	x0, x20
    17c8:	d2802001 	mov	x1, #0x100                 	// #256
    17cc:	940032d4 	bl	e31c <vsnprintf>
    17d0:	2a0003f3 	mov	w19, w0
/home/neu/Desktop/OPTEE/source/public/optee_src/optee/optee_os/lib/libutee/trace_ext.c:53
    17d4:	37f80060 	tbnz	w0, #31, 17e0 <printf+0xc4>
/home/neu/Desktop/OPTEE/source/public/optee_src/optee/optee_os/lib/libutee/trace_ext.c:56
    17d8:	aa1403e0 	mov	x0, x20
    17dc:	97ffffc4 	bl	16ec <trace_ext_puts>
/home/neu/Desktop/OPTEE/source/public/optee_src/optee/optee_os/lib/libutee/trace_ext.c:59
    17e0:	d0000081 	adrp	x1, 13000 <_DYNAMIC>
    17e4:	f9409821 	ldr	x1, [x1, #304]
    17e8:	f940b7e0 	ldr	x0, [sp, #360]
    17ec:	f9400022 	ldr	x2, [x1]
    17f0:	eb020000 	subs	x0, x0, x2
    17f4:	d2800002 	mov	x2, #0x0                   	// #0
    17f8:	54000080 	b.eq	1808 <printf+0xec>  // b.none
    17fc:	97fffb4f 	bl	538 <__stack_chk_fail>
/home/neu/Desktop/OPTEE/source/public/optee_src/optee/optee_os/lib/libutee/trace_ext.c:47
    1800:	52800013 	mov	w19, #0x0                   	// #0
    1804:	17fffff7 	b	17e0 <printf+0xc4>
/home/neu/Desktop/OPTEE/source/public/optee_src/optee/optee_os/lib/libutee/trace_ext.c:59
    1808:	2a1303e0 	mov	w0, w19
    180c:	a9407bfd 	ldp	x29, x30, [sp]
    1810:	a94153f3 	ldp	x19, x20, [sp, #16]
    1814:	9108c3ff 	add	sp, sp, #0x230
    1818:	d65f03c0 	ret

000000000000181c <puts>:
puts():
/home/neu/Desktop/OPTEE/source/public/optee_src/optee/optee_os/lib/libutee/trace_ext.c:62
    181c:	a9be7bfd 	stp	x29, x30, [sp, #-32]!
    1820:	910003fd 	mov	x29, sp
    1824:	f9000bf3 	str	x19, [sp, #16]
    1828:	aa0003f3 	mov	x19, x0
/home/neu/Desktop/OPTEE/source/public/optee_src/optee/optee_os/lib/libutee/trace_ext.c:63
    182c:	97fffb56 	bl	584 <trace_get_level>
    1830:	7100001f 	cmp	w0, #0x0
    1834:	540000cd 	b.le	184c <puts+0x30>
/home/neu/Desktop/OPTEE/source/public/optee_src/optee/optee_os/lib/libutee/trace_ext.c:64
    1838:	aa1303e0 	mov	x0, x19
    183c:	97ffffac 	bl	16ec <trace_ext_puts>
/home/neu/Desktop/OPTEE/source/public/optee_src/optee/optee_os/lib/libutee/trace_ext.c:65
    1840:	90000080 	adrp	x0, 11000 <__text_end+0x2998>
    1844:	912ef800 	add	x0, x0, #0xbbe
    1848:	97ffffa9 	bl	16ec <trace_ext_puts>
/home/neu/Desktop/OPTEE/source/public/optee_src/optee/optee_os/lib/libutee/trace_ext.c:68
    184c:	52800020 	mov	w0, #0x1                   	// #1
    1850:	f9400bf3 	ldr	x19, [sp, #16]
    1854:	a8c27bfd 	ldp	x29, x30, [sp], #32
    1858:	d65f03c0 	ret

000000000000185c <putchar>:
putchar():
/home/neu/Desktop/OPTEE/source/public/optee_src/optee/optee_os/lib/libutee/trace_ext.c:71
    185c:	a9bd7bfd 	stp	x29, x30, [sp, #-48]!
    1860:	d0000081 	adrp	x1, 13000 <_DYNAMIC>
    1864:	910003fd 	mov	x29, sp
    1868:	f9409821 	ldr	x1, [x1, #304]
    186c:	f9000bf3 	str	x19, [sp, #16]
    1870:	2a0003f3 	mov	w19, w0
/home/neu/Desktop/OPTEE/source/public/optee_src/optee/optee_os/lib/libutee/trace_ext.c:72
    1874:	390083f3 	strb	w19, [sp, #32]
/home/neu/Desktop/OPTEE/source/public/optee_src/optee/optee_os/lib/libutee/trace_ext.c:71
    1878:	f9400020 	ldr	x0, [x1]
    187c:	f90017e0 	str	x0, [sp, #40]
    1880:	d2800000 	mov	x0, #0x0                   	// #0
/home/neu/Desktop/OPTEE/source/public/optee_src/optee/optee_os/lib/libutee/trace_ext.c:72
    1884:	390087ff 	strb	wzr, [sp, #33]
/home/neu/Desktop/OPTEE/source/public/optee_src/optee/optee_os/lib/libutee/trace_ext.c:74
    1888:	97fffb3f 	bl	584 <trace_get_level>
    188c:	7100001f 	cmp	w0, #0x0
    1890:	5400006d 	b.le	189c <putchar+0x40>
/home/neu/Desktop/OPTEE/source/public/optee_src/optee/optee_os/lib/libutee/trace_ext.c:75
    1894:	910083e0 	add	x0, sp, #0x20
    1898:	97ffff95 	bl	16ec <trace_ext_puts>
/home/neu/Desktop/OPTEE/source/public/optee_src/optee/optee_os/lib/libutee/trace_ext.c:82
    189c:	d0000081 	adrp	x1, 13000 <_DYNAMIC>
/home/neu/Desktop/OPTEE/source/public/optee_src/optee/optee_os/lib/libutee/trace_ext.c:81
    18a0:	12001e60 	and	w0, w19, #0xff
/home/neu/Desktop/OPTEE/source/public/optee_src/optee/optee_os/lib/libutee/trace_ext.c:82
    18a4:	f9409821 	ldr	x1, [x1, #304]
    18a8:	f94017e2 	ldr	x2, [sp, #40]
    18ac:	f9400023 	ldr	x3, [x1]
    18b0:	eb030042 	subs	x2, x2, x3
    18b4:	d2800003 	mov	x3, #0x0                   	// #0
    18b8:	54000040 	b.eq	18c0 <putchar+0x64>  // b.none
    18bc:	97fffb1f 	bl	538 <__stack_chk_fail>
    18c0:	f9400bf3 	ldr	x19, [sp, #16]
    18c4:	a8c37bfd 	ldp	x29, x30, [sp], #48
    18c8:	d65f03c0 	ret

00000000000018cc <copy_param>:
copy_param():
/home/neu/Desktop/OPTEE/source/public/optee_src/optee/optee_os/lib/libutee/tee_api.c:43
    18cc:	2a0103e3 	mov	w3, w1
    18d0:	52800004 	mov	w4, #0x0                   	// #0
    18d4:	f8008403 	str	x3, [x0], #8
/home/neu/Desktop/OPTEE/source/public/optee_src/optee/optee_os/lib/libutee/tee_api.c:45
    18d8:	1ac42425 	lsr	w5, w1, w4
    18dc:	12000ca3 	and	w3, w5, #0xf
    18e0:	71000c7f 	cmp	w3, #0x3
    18e4:	540001a0 	b.eq	1918 <copy_param+0x4c>  // b.none
    18e8:	721e04bf 	tst	w5, #0xc
    18ec:	540000c1 	b.ne	1904 <copy_param+0x38>  // b.any
    18f0:	7100047f 	cmp	w3, #0x1
    18f4:	54000120 	b.eq	1918 <copy_param+0x4c>  // b.none
    18f8:	d2800003 	mov	x3, #0x0                   	// #0
    18fc:	d2800005 	mov	x5, #0x0                   	// #0
    1900:	14000007 	b	191c <copy_param+0x50>
    1904:	51001463 	sub	w3, w3, #0x5
    1908:	7100087f 	cmp	w3, #0x2
    190c:	54ffff68 	b.hi	18f8 <copy_param+0x2c>  // b.pmore
/home/neu/Desktop/OPTEE/source/public/optee_src/optee/optee_os/lib/libutee/tee_api.c:55
    1910:	a9400c45 	ldp	x5, x3, [x2]
/home/neu/Desktop/OPTEE/source/public/optee_src/optee/optee_os/lib/libutee/tee_api.c:56
    1914:	14000002 	b	191c <copy_param+0x50>
/home/neu/Desktop/OPTEE/source/public/optee_src/optee/optee_os/lib/libutee/tee_api.c:49
    1918:	29400c45 	ldp	w5, w3, [x2]
/home/neu/Desktop/OPTEE/source/public/optee_src/optee/optee_os/lib/libutee/tee_api.c:62 (discriminator 2)
    191c:	a9000c05 	stp	x5, x3, [x0]
/home/neu/Desktop/OPTEE/source/public/optee_src/optee/optee_os/lib/libutee/tee_api.c:44 (discriminator 2)
    1920:	11001084 	add	w4, w4, #0x4
    1924:	91004042 	add	x2, x2, #0x10
    1928:	7100409f 	cmp	w4, #0x10
    192c:	91004000 	add	x0, x0, #0x10
    1930:	54fffd41 	b.ne	18d8 <copy_param+0xc>  // b.any
/home/neu/Desktop/OPTEE/source/public/optee_src/optee/optee_os/lib/libutee/tee_api.c:64
    1934:	d65f03c0 	ret

0000000000001938 <copy_gp11_param>:
copy_gp11_param():
/home/neu/Desktop/OPTEE/source/public/optee_src/optee/optee_os/lib/libutee/tee_api.c:73
    1938:	2a0103e3 	mov	w3, w1
    193c:	52800004 	mov	w4, #0x0                   	// #0
    1940:	f8008403 	str	x3, [x0], #8
/home/neu/Desktop/OPTEE/source/public/optee_src/optee/optee_os/lib/libutee/tee_api.c:75
    1944:	1ac42425 	lsr	w5, w1, w4
    1948:	12000ca3 	and	w3, w5, #0xf
    194c:	71000c7f 	cmp	w3, #0x3
    1950:	540001c0 	b.eq	1988 <copy_gp11_param+0x50>  // b.none
    1954:	721e04bf 	tst	w5, #0xc
    1958:	540000c1 	b.ne	1970 <copy_gp11_param+0x38>  // b.any
    195c:	7100047f 	cmp	w3, #0x1
    1960:	54000140 	b.eq	1988 <copy_gp11_param+0x50>  // b.none
    1964:	d2800003 	mov	x3, #0x0                   	// #0
    1968:	d2800005 	mov	x5, #0x0                   	// #0
    196c:	14000008 	b	198c <copy_gp11_param+0x54>
    1970:	51001463 	sub	w3, w3, #0x5
    1974:	7100087f 	cmp	w3, #0x2
    1978:	54ffff68 	b.hi	1964 <copy_gp11_param+0x2c>  // b.pmore
/home/neu/Desktop/OPTEE/source/public/optee_src/optee/optee_os/lib/libutee/tee_api.c:85
    197c:	b9400843 	ldr	w3, [x2, #8]
/home/neu/Desktop/OPTEE/source/public/optee_src/optee/optee_os/lib/libutee/tee_api.c:84
    1980:	f9400045 	ldr	x5, [x2]
/home/neu/Desktop/OPTEE/source/public/optee_src/optee/optee_os/lib/libutee/tee_api.c:86
    1984:	14000002 	b	198c <copy_gp11_param+0x54>
/home/neu/Desktop/OPTEE/source/public/optee_src/optee/optee_os/lib/libutee/tee_api.c:79
    1988:	29400c45 	ldp	w5, w3, [x2]
/home/neu/Desktop/OPTEE/source/public/optee_src/optee/optee_os/lib/libutee/tee_api.c:92 (discriminator 2)
    198c:	a9000c05 	stp	x5, x3, [x0]
/home/neu/Desktop/OPTEE/source/public/optee_src/optee/optee_os/lib/libutee/tee_api.c:74 (discriminator 2)
    1990:	11001084 	add	w4, w4, #0x4
    1994:	91004042 	add	x2, x2, #0x10
    1998:	7100409f 	cmp	w4, #0x10
    199c:	91004000 	add	x0, x0, #0x10
    19a0:	54fffd21 	b.ne	1944 <copy_gp11_param+0xc>  // b.any
/home/neu/Desktop/OPTEE/source/public/optee_src/optee/optee_os/lib/libutee/tee_api.c:94
    19a4:	d65f03c0 	ret

00000000000019a8 <check_mem_access_rights_params>:
check_mem_access_rights_params():
/home/neu/Desktop/OPTEE/source/public/optee_src/optee/optee_os/lib/libutee/tee_api.c:261
    19a8:	d0000083 	adrp	x3, 13000 <_DYNAMIC>
bufs_intersect():
/home/neu/Desktop/OPTEE/source/public/optee_src/optee/optee_os/lib/libutee/tee_api.c:241
    19ac:	d1000447 	sub	x7, x2, #0x1
    19b0:	8b0100e7 	add	x7, x7, x1
check_mem_access_rights_params():
/home/neu/Desktop/OPTEE/source/public/optee_src/optee/optee_os/lib/libutee/tee_api.c:261
    19b4:	52800005 	mov	w5, #0x0                   	// #0
    19b8:	f940d064 	ldr	x4, [x3, #416]
    19bc:	f940e063 	ldr	x3, [x3, #448]
    19c0:	b9400089 	ldr	w9, [x4]
    19c4:	1ac52524 	lsr	w4, w9, w5
    19c8:	12000c84 	and	w4, w4, #0xf
    19cc:	7100149f 	cmp	w4, #0x5
    19d0:	540002e0 	b.eq	1a2c <check_mem_access_rights_params+0x84>  // b.none
    19d4:	51001884 	sub	w4, w4, #0x6
    19d8:	7100049f 	cmp	w4, #0x1
    19dc:	540001c8 	b.hi	1a14 <check_mem_access_rights_params+0x6c>  // b.pmore
    19e0:	528000c6 	mov	w6, #0x6                   	// #6
/home/neu/Desktop/OPTEE/source/public/optee_src/optee/optee_os/lib/libutee/tee_api.c:268
    19e4:	a9401068 	ldp	x8, x4, [x3]
bufs_intersect():
/home/neu/Desktop/OPTEE/source/public/optee_src/optee/optee_os/lib/libutee/tee_api.c:244
    19e8:	f100005f 	cmp	x2, #0x0
    19ec:	fa401884 	ccmp	x4, #0x0, #0x4, ne  // ne = any
    19f0:	54000120 	b.eq	1a14 <check_mem_access_rights_params+0x6c>  // b.none
/home/neu/Desktop/OPTEE/source/public/optee_src/optee/optee_os/lib/libutee/tee_api.c:242
    19f4:	d1000484 	sub	x4, x4, #0x1
/home/neu/Desktop/OPTEE/source/public/optee_src/optee/optee_os/lib/libutee/tee_api.c:247
    19f8:	eb07011f 	cmp	x8, x7
/home/neu/Desktop/OPTEE/source/public/optee_src/optee/optee_os/lib/libutee/tee_api.c:242
    19fc:	8b080084 	add	x4, x4, x8
/home/neu/Desktop/OPTEE/source/public/optee_src/optee/optee_os/lib/libutee/tee_api.c:247
    1a00:	fa449022 	ccmp	x1, x4, #0x2, ls  // ls = plast
    1a04:	54000088 	b.hi	1a14 <check_mem_access_rights_params+0x6c>  // b.pmore
check_mem_access_rights_params():
/home/neu/Desktop/OPTEE/source/public/optee_src/optee/optee_os/lib/libutee/tee_api.c:267
    1a08:	320000c6 	orr	w6, w6, #0x1
/home/neu/Desktop/OPTEE/source/public/optee_src/optee/optee_os/lib/libutee/tee_api.c:271
    1a0c:	6a26001f 	bics	wzr, w0, w6
    1a10:	54000121 	b.ne	1a34 <check_mem_access_rights_params+0x8c>  // b.any
/home/neu/Desktop/OPTEE/source/public/optee_src/optee/optee_os/lib/libutee/tee_api.c:258 (discriminator 2)
    1a14:	110010a5 	add	w5, w5, #0x4
    1a18:	91004063 	add	x3, x3, #0x10
    1a1c:	710040bf 	cmp	w5, #0x10
    1a20:	54fffd21 	b.ne	19c4 <check_mem_access_rights_params+0x1c>  // b.any
/home/neu/Desktop/OPTEE/source/public/optee_src/optee/optee_os/lib/libutee/tee_api.c:280
    1a24:	52800000 	mov	w0, #0x0                   	// #0
/home/neu/Desktop/OPTEE/source/public/optee_src/optee/optee_os/lib/libutee/tee_api.c:281
    1a28:	d65f03c0 	ret
/home/neu/Desktop/OPTEE/source/public/optee_src/optee/optee_os/lib/libutee/tee_api.c:259
    1a2c:	52800086 	mov	w6, #0x4                   	// #4
    1a30:	17ffffed 	b	19e4 <check_mem_access_rights_params+0x3c>
/home/neu/Desktop/OPTEE/source/public/optee_src/optee/optee_os/lib/libutee/tee_api.c:272
    1a34:	129fffc0 	mov	w0, #0xffff0001            	// #-65535
    1a38:	17fffffc 	b	1a28 <check_mem_access_rights_params+0x80>

0000000000001a3c <buf_overlaps_no_share_heap>:
buf_overlaps_no_share_heap():
/home/neu/Desktop/OPTEE/source/public/optee_src/optee/optee_os/lib/libutee/tee_api.c:284
    1a3c:	aa0003e3 	mov	x3, x0
/home/neu/Desktop/OPTEE/source/public/optee_src/optee/optee_os/lib/libutee/tee_api.c:285
    1a40:	d0000080 	adrp	x0, 13000 <_DYNAMIC>
    1a44:	f940d800 	ldr	x0, [x0, #432]
    1a48:	f9400000 	ldr	x0, [x0]
/home/neu/Desktop/OPTEE/source/public/optee_src/optee/optee_os/lib/libutee/tee_api.c:287
    1a4c:	b4000140 	cbz	x0, 1a74 <buf_overlaps_no_share_heap+0x38>
/home/neu/Desktop/OPTEE/source/public/optee_src/optee/optee_os/lib/libutee/tee_api.c:284 (discriminator 1)
    1a50:	a9bf7bfd 	stp	x29, x30, [sp, #-16]!
    1a54:	aa0103e2 	mov	x2, x1
/home/neu/Desktop/OPTEE/source/public/optee_src/optee/optee_os/lib/libutee/tee_api.c:287 (discriminator 1)
    1a58:	aa0303e1 	mov	x1, x3
/home/neu/Desktop/OPTEE/source/public/optee_src/optee/optee_os/lib/libutee/tee_api.c:284 (discriminator 1)
    1a5c:	910003fd 	mov	x29, sp
/home/neu/Desktop/OPTEE/source/public/optee_src/optee/optee_os/lib/libutee/tee_api.c:287 (discriminator 1)
    1a60:	94003178 	bl	e040 <raw_malloc_buffer_overlaps_heap>
    1a64:	12001c00 	and	w0, w0, #0xff
/home/neu/Desktop/OPTEE/source/public/optee_src/optee/optee_os/lib/libutee/tee_api.c:288 (discriminator 1)
    1a68:	12000000 	and	w0, w0, #0x1
    1a6c:	a8c17bfd 	ldp	x29, x30, [sp], #16
    1a70:	d65f03c0 	ret
/home/neu/Desktop/OPTEE/source/public/optee_src/optee/optee_os/lib/libutee/tee_api.c:287
    1a74:	52800000 	mov	w0, #0x0                   	// #0
/home/neu/Desktop/OPTEE/source/public/optee_src/optee/optee_os/lib/libutee/tee_api.c:288
    1a78:	12000000 	and	w0, w0, #0x1
    1a7c:	d65f03c0 	ret

0000000000001a80 <check_invoke_param>:
check_invoke_param():
/home/neu/Desktop/OPTEE/source/public/optee_src/optee/optee_os/lib/libutee/tee_api.c:291
    1a80:	a9bc7bfd 	stp	x29, x30, [sp, #-64]!
    1a84:	910003fd 	mov	x29, sp
    1a88:	a90153f3 	stp	x19, x20, [sp, #16]
    1a8c:	91002033 	add	x19, x1, #0x8
    1a90:	52800014 	mov	w20, #0x0                   	// #0
    1a94:	a9025bf5 	stp	x21, x22, [sp, #32]
    1a98:	2a0003f5 	mov	w21, w0
    1a9c:	f9001bf7 	str	x23, [sp, #48]
/home/neu/Desktop/OPTEE/source/public/optee_src/optee/optee_os/lib/libutee/tee_api.c:299
    1aa0:	1ad426a1 	lsr	w1, w21, w20
    1aa4:	12000c21 	and	w1, w1, #0xf
    1aa8:	7100143f 	cmp	w1, #0x5
    1aac:	540003a0 	b.eq	1b20 <check_invoke_param+0xa0>  // b.none
    1ab0:	51001821 	sub	w1, w1, #0x6
    1ab4:	7100043f 	cmp	w1, #0x1
    1ab8:	54000228 	b.hi	1afc <check_invoke_param+0x7c>  // b.pmore
    1abc:	528000c0 	mov	w0, #0x6                   	// #6
/home/neu/Desktop/OPTEE/source/public/optee_src/optee/optee_os/lib/libutee/tee_api.c:297
    1ac0:	a97fde76 	ldp	x22, x23, [x19, #-8]
/home/neu/Desktop/OPTEE/source/public/optee_src/optee/optee_os/lib/libutee/tee_api.c:306
    1ac4:	32000000 	orr	w0, w0, #0x1
    1ac8:	aa1703e2 	mov	x2, x23
    1acc:	aa1603e1 	mov	x1, x22
    1ad0:	97ffffb6 	bl	19a8 <check_mem_access_rights_params>
    1ad4:	34000060 	cbz	w0, 1ae0 <check_invoke_param+0x60>
/home/neu/Desktop/OPTEE/source/public/optee_src/optee/optee_os/lib/libutee/tee_api.c:307
    1ad8:	52800000 	mov	w0, #0x0                   	// #0
    1adc:	94000a41 	bl	43e0 <TEE_Panic>
/home/neu/Desktop/OPTEE/source/public/optee_src/optee/optee_os/lib/libutee/tee_api.c:308
    1ae0:	aa1703e1 	mov	x1, x23
    1ae4:	aa1603e0 	mov	x0, x22
    1ae8:	97ffffd5 	bl	1a3c <buf_overlaps_no_share_heap>
    1aec:	72001c1f 	tst	w0, #0xff
    1af0:	54000060 	b.eq	1afc <check_invoke_param+0x7c>  // b.none
/home/neu/Desktop/OPTEE/source/public/optee_src/optee/optee_os/lib/libutee/tee_api.c:309
    1af4:	52800000 	mov	w0, #0x0                   	// #0
    1af8:	94000a3a 	bl	43e0 <TEE_Panic>
/home/neu/Desktop/OPTEE/source/public/optee_src/optee/optee_os/lib/libutee/tee_api.c:294 (discriminator 2)
    1afc:	11001294 	add	w20, w20, #0x4
    1b00:	91004273 	add	x19, x19, #0x10
    1b04:	7100429f 	cmp	w20, #0x10
    1b08:	54fffcc1 	b.ne	1aa0 <check_invoke_param+0x20>  // b.any
/home/neu/Desktop/OPTEE/source/public/optee_src/optee/optee_os/lib/libutee/tee_api.c:315
    1b0c:	a94153f3 	ldp	x19, x20, [sp, #16]
    1b10:	a9425bf5 	ldp	x21, x22, [sp, #32]
    1b14:	f9401bf7 	ldr	x23, [sp, #48]
    1b18:	a8c47bfd 	ldp	x29, x30, [sp], #64
    1b1c:	d65f03c0 	ret
/home/neu/Desktop/OPTEE/source/public/optee_src/optee/optee_os/lib/libutee/tee_api.c:295
    1b20:	52800080 	mov	w0, #0x4                   	// #4
    1b24:	17ffffe7 	b	1ac0 <check_invoke_param+0x40>

0000000000001b28 <update_out_param>:
update_out_param():
/home/neu/Desktop/OPTEE/source/public/optee_src/optee/optee_os/lib/libutee/tee_api.c:180
    1b28:	a9bc7bfd 	stp	x29, x30, [sp, #-64]!
    1b2c:	910003fd 	mov	x29, sp
    1b30:	a90153f3 	stp	x19, x20, [sp, #16]
/home/neu/Desktop/OPTEE/source/public/optee_src/optee/optee_os/lib/libutee/tee_api.c:182
    1b34:	aa0203f4 	mov	x20, x2
    1b38:	aa0003f3 	mov	x19, x0
/home/neu/Desktop/OPTEE/source/public/optee_src/optee/optee_os/lib/libutee/tee_api.c:180
    1b3c:	a90363f7 	stp	x23, x24, [sp, #48]
    1b40:	aa0103f8 	mov	x24, x1
/home/neu/Desktop/OPTEE/source/public/optee_src/optee/optee_os/lib/libutee/tee_api.c:182
    1b44:	f8408697 	ldr	x23, [x20], #8
/home/neu/Desktop/OPTEE/source/public/optee_src/optee/optee_os/lib/libutee/tee_api.c:180
    1b48:	a9025bf5 	stp	x21, x22, [sp, #32]
/home/neu/Desktop/OPTEE/source/public/optee_src/optee/optee_os/lib/libutee/tee_api.c:184
    1b4c:	d2800015 	mov	x21, #0x0                   	// #0
/home/neu/Desktop/OPTEE/source/public/optee_src/optee/optee_os/lib/libutee/tee_api.c:188
    1b50:	531e76a0 	lsl	w0, w21, #2
/home/neu/Desktop/OPTEE/source/public/optee_src/optee/optee_os/lib/libutee/tee_api.c:186
    1b54:	f9400696 	ldr	x22, [x20, #8]
/home/neu/Desktop/OPTEE/source/public/optee_src/optee/optee_os/lib/libutee/tee_api.c:188
    1b58:	1ac026e0 	lsr	w0, w23, w0
    1b5c:	12000c01 	and	w1, w0, #0xf
    1b60:	721e041f 	tst	w0, #0xc
    1b64:	540000c1 	b.ne	1b7c <update_out_param+0x54>  // b.any
    1b68:	721f081f 	tst	w0, #0xe
    1b6c:	540000e0 	b.eq	1b88 <update_out_param+0x60>  // b.none
/home/neu/Desktop/OPTEE/source/public/optee_src/optee/optee_os/lib/libutee/tee_api.c:191
    1b70:	f9400280 	ldr	x0, [x20]
/home/neu/Desktop/OPTEE/source/public/optee_src/optee/optee_os/lib/libutee/tee_api.c:192
    1b74:	29005a60 	stp	w0, w22, [x19]
/home/neu/Desktop/OPTEE/source/public/optee_src/optee/optee_os/lib/libutee/tee_api.c:193
    1b78:	14000004 	b	1b88 <update_out_param+0x60>
/home/neu/Desktop/OPTEE/source/public/optee_src/optee/optee_os/lib/libutee/tee_api.c:188
    1b7c:	51001820 	sub	w0, w1, #0x6
    1b80:	7100041f 	cmp	w0, #0x1
    1b84:	54000169 	b.ls	1bb0 <update_out_param+0x88>  // b.plast
/home/neu/Desktop/OPTEE/source/public/optee_src/optee/optee_os/lib/libutee/tee_api.c:184 (discriminator 2)
    1b88:	910006b5 	add	x21, x21, #0x1
    1b8c:	91004294 	add	x20, x20, #0x10
    1b90:	91004273 	add	x19, x19, #0x10
    1b94:	f10012bf 	cmp	x21, #0x4
    1b98:	54fffdc1 	b.ne	1b50 <update_out_param+0x28>  // b.any
/home/neu/Desktop/OPTEE/source/public/optee_src/optee/optee_os/lib/libutee/tee_api.c:205
    1b9c:	a94153f3 	ldp	x19, x20, [sp, #16]
    1ba0:	a9425bf5 	ldp	x21, x22, [sp, #32]
    1ba4:	a94363f7 	ldp	x23, x24, [sp, #48]
    1ba8:	a8c47bfd 	ldp	x29, x30, [sp], #64
    1bac:	d65f03c0 	ret
/home/neu/Desktop/OPTEE/source/public/optee_src/optee/optee_os/lib/libutee/tee_api.c:196
    1bb0:	f8757b01 	ldr	x1, [x24, x21, lsl #3]
    1bb4:	b40000a1 	cbz	x1, 1bc8 <update_out_param+0xa0>
/home/neu/Desktop/OPTEE/source/public/optee_src/optee/optee_os/lib/libutee/tee_api.c:198
    1bb8:	a9400a60 	ldp	x0, x2, [x19]
    1bbc:	eb16005f 	cmp	x2, x22
/home/neu/Desktop/OPTEE/source/public/optee_src/optee/optee_os/lib/libutee/tee_api.c:197
    1bc0:	9a969042 	csel	x2, x2, x22, ls  // ls = plast
    1bc4:	97fff917 	bl	20 <memcpy>
/home/neu/Desktop/OPTEE/source/public/optee_src/optee/optee_os/lib/libutee/tee_api.c:199
    1bc8:	f9000676 	str	x22, [x19, #8]
/home/neu/Desktop/OPTEE/source/public/optee_src/optee/optee_os/lib/libutee/tee_api.c:200
    1bcc:	17ffffef 	b	1b88 <update_out_param+0x60>

0000000000001bd0 <update_out_gp11_param>:
update_out_gp11_param():
/home/neu/Desktop/OPTEE/source/public/optee_src/optee/optee_os/lib/libutee/tee_api.c:210
    1bd0:	a9bc7bfd 	stp	x29, x30, [sp, #-64]!
    1bd4:	910003fd 	mov	x29, sp
    1bd8:	a90153f3 	stp	x19, x20, [sp, #16]
/home/neu/Desktop/OPTEE/source/public/optee_src/optee/optee_os/lib/libutee/tee_api.c:212
    1bdc:	aa0203f4 	mov	x20, x2
    1be0:	aa0003f3 	mov	x19, x0
/home/neu/Desktop/OPTEE/source/public/optee_src/optee/optee_os/lib/libutee/tee_api.c:210
    1be4:	a90363f7 	stp	x23, x24, [sp, #48]
    1be8:	aa0103f8 	mov	x24, x1
/home/neu/Desktop/OPTEE/source/public/optee_src/optee/optee_os/lib/libutee/tee_api.c:212
    1bec:	f8408697 	ldr	x23, [x20], #8
/home/neu/Desktop/OPTEE/source/public/optee_src/optee/optee_os/lib/libutee/tee_api.c:210
    1bf0:	a9025bf5 	stp	x21, x22, [sp, #32]
/home/neu/Desktop/OPTEE/source/public/optee_src/optee/optee_os/lib/libutee/tee_api.c:214
    1bf4:	d2800015 	mov	x21, #0x0                   	// #0
/home/neu/Desktop/OPTEE/source/public/optee_src/optee/optee_os/lib/libutee/tee_api.c:218
    1bf8:	531e76a0 	lsl	w0, w21, #2
/home/neu/Desktop/OPTEE/source/public/optee_src/optee/optee_os/lib/libutee/tee_api.c:216
    1bfc:	f9400696 	ldr	x22, [x20, #8]
/home/neu/Desktop/OPTEE/source/public/optee_src/optee/optee_os/lib/libutee/tee_api.c:218
    1c00:	1ac026e0 	lsr	w0, w23, w0
    1c04:	12000c01 	and	w1, w0, #0xf
    1c08:	721e041f 	tst	w0, #0xc
    1c0c:	540000c1 	b.ne	1c24 <update_out_gp11_param+0x54>  // b.any
    1c10:	721f081f 	tst	w0, #0xe
    1c14:	540000e0 	b.eq	1c30 <update_out_gp11_param+0x60>  // b.none
/home/neu/Desktop/OPTEE/source/public/optee_src/optee/optee_os/lib/libutee/tee_api.c:221
    1c18:	f9400280 	ldr	x0, [x20]
/home/neu/Desktop/OPTEE/source/public/optee_src/optee/optee_os/lib/libutee/tee_api.c:222
    1c1c:	29005a60 	stp	w0, w22, [x19]
/home/neu/Desktop/OPTEE/source/public/optee_src/optee/optee_os/lib/libutee/tee_api.c:223
    1c20:	14000004 	b	1c30 <update_out_gp11_param+0x60>
/home/neu/Desktop/OPTEE/source/public/optee_src/optee/optee_os/lib/libutee/tee_api.c:218
    1c24:	51001820 	sub	w0, w1, #0x6
    1c28:	7100041f 	cmp	w0, #0x1
    1c2c:	54000169 	b.ls	1c58 <update_out_gp11_param+0x88>  // b.plast
/home/neu/Desktop/OPTEE/source/public/optee_src/optee/optee_os/lib/libutee/tee_api.c:214 (discriminator 2)
    1c30:	910006b5 	add	x21, x21, #0x1
    1c34:	91004294 	add	x20, x20, #0x10
    1c38:	91004273 	add	x19, x19, #0x10
    1c3c:	f10012bf 	cmp	x21, #0x4
    1c40:	54fffdc1 	b.ne	1bf8 <update_out_gp11_param+0x28>  // b.any
/home/neu/Desktop/OPTEE/source/public/optee_src/optee/optee_os/lib/libutee/tee_api.c:235
    1c44:	a94153f3 	ldp	x19, x20, [sp, #16]
    1c48:	a9425bf5 	ldp	x21, x22, [sp, #32]
    1c4c:	a94363f7 	ldp	x23, x24, [sp, #48]
    1c50:	a8c47bfd 	ldp	x29, x30, [sp], #64
    1c54:	d65f03c0 	ret
/home/neu/Desktop/OPTEE/source/public/optee_src/optee/optee_os/lib/libutee/tee_api.c:226
    1c58:	f8757b01 	ldr	x1, [x24, x21, lsl #3]
    1c5c:	b40000c1 	cbz	x1, 1c74 <update_out_gp11_param+0xa4>
/home/neu/Desktop/OPTEE/source/public/optee_src/optee/optee_os/lib/libutee/tee_api.c:228
    1c60:	b9400a62 	ldr	w2, [x19, #8]
/home/neu/Desktop/OPTEE/source/public/optee_src/optee/optee_os/lib/libutee/tee_api.c:227
    1c64:	f9400260 	ldr	x0, [x19]
/home/neu/Desktop/OPTEE/source/public/optee_src/optee/optee_os/lib/libutee/tee_api.c:228
    1c68:	eb16005f 	cmp	x2, x22
/home/neu/Desktop/OPTEE/source/public/optee_src/optee/optee_os/lib/libutee/tee_api.c:227
    1c6c:	9a969042 	csel	x2, x2, x22, ls  // ls = plast
    1c70:	97fff8ec 	bl	20 <memcpy>
/home/neu/Desktop/OPTEE/source/public/optee_src/optee/optee_os/lib/libutee/tee_api.c:229
    1c74:	b9000a76 	str	w22, [x19, #8]
/home/neu/Desktop/OPTEE/source/public/optee_src/optee/optee_os/lib/libutee/tee_api.c:230
    1c78:	17ffffee 	b	1c30 <update_out_gp11_param+0x60>

0000000000001c7c <TEE_CloseTASession>:
TEE_CloseTASession():
/home/neu/Desktop/OPTEE/source/public/optee_src/optee/optee_os/lib/libutee/tee_api.c:416
    1c7c:	b4000120 	cbz	x0, 1ca0 <TEE_CloseTASession+0x24>
/home/neu/Desktop/OPTEE/source/public/optee_src/optee/optee_os/lib/libutee/tee_api.c:415
    1c80:	a9bf7bfd 	stp	x29, x30, [sp, #-16]!
    1c84:	910003fd 	mov	x29, sp
/home/neu/Desktop/OPTEE/source/public/optee_src/optee/optee_os/lib/libutee/tee_api.c:417
    1c88:	94000d8f 	bl	52c4 <_utee_close_ta_session>
/home/neu/Desktop/OPTEE/source/public/optee_src/optee/optee_os/lib/libutee/tee_api.c:419
    1c8c:	34000060 	cbz	w0, 1c98 <TEE_CloseTASession+0x1c>
/home/neu/Desktop/OPTEE/source/public/optee_src/optee/optee_os/lib/libutee/tee_api.c:422
    1c90:	a8c17bfd 	ldp	x29, x30, [sp], #16
/home/neu/Desktop/OPTEE/source/public/optee_src/optee/optee_os/lib/libutee/tee_api.c:420
    1c94:	140009d3 	b	43e0 <TEE_Panic>
/home/neu/Desktop/OPTEE/source/public/optee_src/optee/optee_os/lib/libutee/tee_api.c:422
    1c98:	a8c17bfd 	ldp	x29, x30, [sp], #16
    1c9c:	d65f03c0 	ret
    1ca0:	d65f03c0 	ret

0000000000001ca4 <TEE_GetCancellationFlag>:
TEE_GetCancellationFlag():
/home/neu/Desktop/OPTEE/source/public/optee_src/optee/optee_os/lib/libutee/tee_api.c:533
    1ca4:	a9be7bfd 	stp	x29, x30, [sp, #-32]!
    1ca8:	d0000081 	adrp	x1, 13000 <_DYNAMIC>
    1cac:	910003fd 	mov	x29, sp
    1cb0:	f9409821 	ldr	x1, [x1, #304]
    1cb4:	f9400020 	ldr	x0, [x1]
    1cb8:	f9000fe0 	str	x0, [sp, #24]
    1cbc:	d2800000 	mov	x0, #0x0                   	// #0
/home/neu/Desktop/OPTEE/source/public/optee_src/optee/optee_os/lib/libutee/tee_api.c:535
    1cc0:	910053e0 	add	x0, sp, #0x14
    1cc4:	94000d86 	bl	52dc <_utee_get_cancellation_flag>
/home/neu/Desktop/OPTEE/source/public/optee_src/optee/optee_os/lib/libutee/tee_api.c:537
    1cc8:	34000040 	cbz	w0, 1cd0 <TEE_GetCancellationFlag+0x2c>
/home/neu/Desktop/OPTEE/source/public/optee_src/optee/optee_os/lib/libutee/tee_api.c:538
    1ccc:	b90017ff 	str	wzr, [sp, #20]
/home/neu/Desktop/OPTEE/source/public/optee_src/optee/optee_os/lib/libutee/tee_api.c:540
    1cd0:	d0000081 	adrp	x1, 13000 <_DYNAMIC>
/home/neu/Desktop/OPTEE/source/public/optee_src/optee/optee_os/lib/libutee/tee_api.c:539
    1cd4:	b94017e0 	ldr	w0, [sp, #20]
/home/neu/Desktop/OPTEE/source/public/optee_src/optee/optee_os/lib/libutee/tee_api.c:540
    1cd8:	f9409821 	ldr	x1, [x1, #304]
/home/neu/Desktop/OPTEE/source/public/optee_src/optee/optee_os/lib/libutee/tee_api.c:539
    1cdc:	7100001f 	cmp	w0, #0x0
    1ce0:	1a9f07e0 	cset	w0, ne  // ne = any
/home/neu/Desktop/OPTEE/source/public/optee_src/optee/optee_os/lib/libutee/tee_api.c:540
    1ce4:	f9400fe2 	ldr	x2, [sp, #24]
    1ce8:	f9400023 	ldr	x3, [x1]
    1cec:	eb030042 	subs	x2, x2, x3
    1cf0:	d2800003 	mov	x3, #0x0                   	// #0
    1cf4:	54000040 	b.eq	1cfc <TEE_GetCancellationFlag+0x58>  // b.none
    1cf8:	97fffa10 	bl	538 <__stack_chk_fail>
    1cfc:	a8c27bfd 	ldp	x29, x30, [sp], #32
    1d00:	d65f03c0 	ret

0000000000001d04 <TEE_UnmaskCancellation>:
TEE_UnmaskCancellation():
/home/neu/Desktop/OPTEE/source/public/optee_src/optee/optee_os/lib/libutee/tee_api.c:543
    1d04:	a9be7bfd 	stp	x29, x30, [sp, #-32]!
    1d08:	d0000081 	adrp	x1, 13000 <_DYNAMIC>
    1d0c:	910003fd 	mov	x29, sp
    1d10:	f9409821 	ldr	x1, [x1, #304]
    1d14:	f9400020 	ldr	x0, [x1]
    1d18:	f9000fe0 	str	x0, [sp, #24]
    1d1c:	d2800000 	mov	x0, #0x0                   	// #0
/home/neu/Desktop/OPTEE/source/public/optee_src/optee/optee_os/lib/libutee/tee_api.c:545
    1d20:	910053e0 	add	x0, sp, #0x14
    1d24:	94000d74 	bl	52f4 <_utee_unmask_cancellation>
/home/neu/Desktop/OPTEE/source/public/optee_src/optee/optee_os/lib/libutee/tee_api.c:547
    1d28:	34000040 	cbz	w0, 1d30 <TEE_UnmaskCancellation+0x2c>
/home/neu/Desktop/OPTEE/source/public/optee_src/optee/optee_os/lib/libutee/tee_api.c:548
    1d2c:	940009ad 	bl	43e0 <TEE_Panic>
/home/neu/Desktop/OPTEE/source/public/optee_src/optee/optee_os/lib/libutee/tee_api.c:550
    1d30:	d0000081 	adrp	x1, 13000 <_DYNAMIC>
/home/neu/Desktop/OPTEE/source/public/optee_src/optee/optee_os/lib/libutee/tee_api.c:549
    1d34:	b94017e0 	ldr	w0, [sp, #20]
/home/neu/Desktop/OPTEE/source/public/optee_src/optee/optee_os/lib/libutee/tee_api.c:550
    1d38:	f9409821 	ldr	x1, [x1, #304]
/home/neu/Desktop/OPTEE/source/public/optee_src/optee/optee_os/lib/libutee/tee_api.c:549
    1d3c:	7100001f 	cmp	w0, #0x0
    1d40:	1a9f07e0 	cset	w0, ne  // ne = any
/home/neu/Desktop/OPTEE/source/public/optee_src/optee/optee_os/lib/libutee/tee_api.c:550
    1d44:	f9400fe2 	ldr	x2, [sp, #24]
    1d48:	f9400023 	ldr	x3, [x1]
    1d4c:	eb030042 	subs	x2, x2, x3
    1d50:	d2800003 	mov	x3, #0x0                   	// #0
    1d54:	54000040 	b.eq	1d5c <TEE_UnmaskCancellation+0x58>  // b.none
    1d58:	97fff9f8 	bl	538 <__stack_chk_fail>
    1d5c:	a8c27bfd 	ldp	x29, x30, [sp], #32
    1d60:	d65f03c0 	ret

0000000000001d64 <TEE_MaskCancellation>:
TEE_MaskCancellation():
/home/neu/Desktop/OPTEE/source/public/optee_src/optee/optee_os/lib/libutee/tee_api.c:553
    1d64:	a9be7bfd 	stp	x29, x30, [sp, #-32]!
    1d68:	d0000081 	adrp	x1, 13000 <_DYNAMIC>
    1d6c:	910003fd 	mov	x29, sp
    1d70:	f9409821 	ldr	x1, [x1, #304]
    1d74:	f9400020 	ldr	x0, [x1]
    1d78:	f9000fe0 	str	x0, [sp, #24]
    1d7c:	d2800000 	mov	x0, #0x0                   	// #0
/home/neu/Desktop/OPTEE/source/public/optee_src/optee/optee_os/lib/libutee/tee_api.c:555
    1d80:	910053e0 	add	x0, sp, #0x14
    1d84:	94000d5f 	bl	5300 <_utee_mask_cancellation>
/home/neu/Desktop/OPTEE/source/public/optee_src/optee/optee_os/lib/libutee/tee_api.c:557
    1d88:	34000040 	cbz	w0, 1d90 <TEE_MaskCancellation+0x2c>
/home/neu/Desktop/OPTEE/source/public/optee_src/optee/optee_os/lib/libutee/tee_api.c:558
    1d8c:	94000995 	bl	43e0 <TEE_Panic>
/home/neu/Desktop/OPTEE/source/public/optee_src/optee/optee_os/lib/libutee/tee_api.c:560
    1d90:	d0000081 	adrp	x1, 13000 <_DYNAMIC>
/home/neu/Desktop/OPTEE/source/public/optee_src/optee/optee_os/lib/libutee/tee_api.c:559
    1d94:	b94017e0 	ldr	w0, [sp, #20]
/home/neu/Desktop/OPTEE/source/public/optee_src/optee/optee_os/lib/libutee/tee_api.c:560
    1d98:	f9409821 	ldr	x1, [x1, #304]
/home/neu/Desktop/OPTEE/source/public/optee_src/optee/optee_os/lib/libutee/tee_api.c:559
    1d9c:	7100001f 	cmp	w0, #0x0
    1da0:	1a9f07e0 	cset	w0, ne  // ne = any
/home/neu/Desktop/OPTEE/source/public/optee_src/optee/optee_os/lib/libutee/tee_api.c:560
    1da4:	f9400fe2 	ldr	x2, [sp, #24]
    1da8:	f9400023 	ldr	x3, [x1]
    1dac:	eb030042 	subs	x2, x2, x3
    1db0:	d2800003 	mov	x3, #0x0                   	// #0
    1db4:	54000040 	b.eq	1dbc <TEE_MaskCancellation+0x58>  // b.none
    1db8:	97fff9e0 	bl	538 <__stack_chk_fail>
    1dbc:	a8c27bfd 	ldp	x29, x30, [sp], #32
    1dc0:	d65f03c0 	ret

0000000000001dc4 <TEE_CheckMemoryAccessRights>:
TEE_CheckMemoryAccessRights():
/home/neu/Desktop/OPTEE/source/public/optee_src/optee/optee_os/lib/libutee/tee_api.c:569
    1dc4:	b5000102 	cbnz	x2, 1de4 <TEE_CheckMemoryAccessRights+0x20>
/home/neu/Desktop/OPTEE/source/public/optee_src/optee/optee_os/lib/libutee/tee_api.c:570
    1dc8:	52800000 	mov	w0, #0x0                   	// #0
/home/neu/Desktop/OPTEE/source/public/optee_src/optee/optee_os/lib/libutee/tee_api.c:595
    1dcc:	d65f03c0 	ret
/home/neu/Desktop/OPTEE/source/public/optee_src/optee/optee_os/lib/libutee/tee_api.c:570
    1dd0:	52800000 	mov	w0, #0x0                   	// #0
/home/neu/Desktop/OPTEE/source/public/optee_src/optee/optee_os/lib/libutee/tee_api.c:595
    1dd4:	a94153f3 	ldp	x19, x20, [sp, #16]
    1dd8:	f94013f5 	ldr	x21, [sp, #32]
    1ddc:	a8c37bfd 	ldp	x29, x30, [sp], #48
    1de0:	d65f03c0 	ret
/home/neu/Desktop/OPTEE/source/public/optee_src/optee/optee_os/lib/libutee/tee_api.c:566
    1de4:	a9bd7bfd 	stp	x29, x30, [sp, #-48]!
    1de8:	910003fd 	mov	x29, sp
    1dec:	a90153f3 	stp	x19, x20, [sp, #16]
    1df0:	aa0103f4 	mov	x20, x1
    1df4:	aa0203f3 	mov	x19, x2
    1df8:	f90013f5 	str	x21, [sp, #32]
    1dfc:	2a0003f5 	mov	w21, w0
/home/neu/Desktop/OPTEE/source/public/optee_src/optee/optee_os/lib/libutee/tee_api.c:576
    1e00:	94000d3a 	bl	52e8 <_utee_check_access_rights>
    1e04:	35000200 	cbnz	w0, 1e44 <TEE_CheckMemoryAccessRights+0x80>
/home/neu/Desktop/OPTEE/source/public/optee_src/optee/optee_os/lib/libutee/tee_api.c:587
    1e08:	aa1303e2 	mov	x2, x19
    1e0c:	aa1403e1 	mov	x1, x20
    1e10:	12000aa0 	and	w0, w21, #0x7
    1e14:	97fffee5 	bl	19a8 <check_mem_access_rights_params>
    1e18:	35000160 	cbnz	w0, 1e44 <TEE_CheckMemoryAccessRights+0x80>
/home/neu/Desktop/OPTEE/source/public/optee_src/optee/optee_os/lib/libutee/tee_api.c:590
    1e1c:	aa1303e1 	mov	x1, x19
    1e20:	aa1403e0 	mov	x0, x20
    1e24:	94003105 	bl	e238 <malloc_buffer_overlaps_heap>
    1e28:	72001c1f 	tst	w0, #0xff
    1e2c:	54fffd20 	b.eq	1dd0 <TEE_CheckMemoryAccessRights+0xc>  // b.none
/home/neu/Desktop/OPTEE/source/public/optee_src/optee/optee_os/lib/libutee/tee_api.c:591
    1e30:	aa1303e1 	mov	x1, x19
    1e34:	aa1403e0 	mov	x0, x20
    1e38:	940030fb 	bl	e224 <malloc_buffer_is_within_alloced>
/home/neu/Desktop/OPTEE/source/public/optee_src/optee/optee_os/lib/libutee/tee_api.c:590
    1e3c:	72001c1f 	tst	w0, #0xff
    1e40:	54fffc81 	b.ne	1dd0 <TEE_CheckMemoryAccessRights+0xc>  // b.any
/home/neu/Desktop/OPTEE/source/public/optee_src/optee/optee_os/lib/libutee/tee_api.c:592
    1e44:	129fffc0 	mov	w0, #0xffff0001            	// #-65535
    1e48:	17ffffe3 	b	1dd4 <TEE_CheckMemoryAccessRights+0x10>

0000000000001e4c <map_tmp_param>:
map_tmp_param():
/home/neu/Desktop/OPTEE/source/public/optee_src/optee/optee_os/lib/libutee/tee_api.c:98
    1e4c:	a9b87bfd 	stp	x29, x30, [sp, #-128]!
    1e50:	d0000084 	adrp	x4, 13000 <_DYNAMIC>
    1e54:	910003fd 	mov	x29, sp
    1e58:	f9409884 	ldr	x4, [x4, #304]
    1e5c:	a9046bf9 	stp	x25, x26, [sp, #64]
    1e60:	aa0003f9 	mov	x25, x0
    1e64:	a90153f3 	stp	x19, x20, [sp, #16]
    1e68:	f9400080 	ldr	x0, [x4]
    1e6c:	f9003fe0 	str	x0, [sp, #120]
    1e70:	d2800000 	mov	x0, #0x0                   	// #0
/home/neu/Desktop/OPTEE/source/public/optee_src/optee/optee_os/lib/libutee/tee_api.c:101
    1e74:	d280001a 	mov	x26, #0x0                   	// #0
/home/neu/Desktop/OPTEE/source/public/optee_src/optee/optee_os/lib/libutee/tee_api.c:98
    1e78:	a9025bf5 	stp	x21, x22, [sp, #32]
    1e7c:	aa0203f6 	mov	x22, x2
    1e80:	aa0303f5 	mov	x21, x3
    1e84:	a90363f7 	stp	x23, x24, [sp, #48]
    1e88:	91002338 	add	x24, x25, #0x8
    1e8c:	aa0103f7 	mov	x23, x1
    1e90:	a90573fb 	stp	x27, x28, [sp, #80]
/home/neu/Desktop/OPTEE/source/public/optee_src/optee/optee_os/lib/libutee/tee_api.c:115
    1e94:	aa1803fb 	mov	x27, x24
/home/neu/Desktop/OPTEE/source/public/optee_src/optee/optee_os/lib/libutee/tee_api.c:135
    1e98:	9101c3fc 	add	x28, sp, #0x70
/home/neu/Desktop/OPTEE/source/public/optee_src/optee/optee_os/lib/libutee/tee_api.c:114
    1e9c:	f900003f 	str	xzr, [x1]
/home/neu/Desktop/OPTEE/source/public/optee_src/optee/optee_os/lib/libutee/tee_api.c:116
    1ea0:	d2800013 	mov	x19, #0x0                   	// #0
/home/neu/Desktop/OPTEE/source/public/optee_src/optee/optee_os/lib/libutee/tee_api.c:135
    1ea4:	52800023 	mov	w3, #0x1                   	// #1
/home/neu/Desktop/OPTEE/source/public/optee_src/optee/optee_os/lib/libutee/tee_api.c:115
    1ea8:	f900005f 	str	xzr, [x2]
/home/neu/Desktop/OPTEE/source/public/optee_src/optee/optee_os/lib/libutee/tee_api.c:103
    1eac:	b90073ff 	str	wzr, [sp, #112]
/home/neu/Desktop/OPTEE/source/public/optee_src/optee/optee_os/lib/libutee/tee_api.c:118
    1eb0:	f9400321 	ldr	x1, [x25]
    1eb4:	531e7660 	lsl	w0, w19, #2
/home/neu/Desktop/OPTEE/source/public/optee_src/optee/optee_os/lib/libutee/tee_api.c:117
    1eb8:	f8337abf 	str	xzr, [x21, x19, lsl #3]
/home/neu/Desktop/OPTEE/source/public/optee_src/optee/optee_os/lib/libutee/tee_api.c:118
    1ebc:	1ac02421 	lsr	w1, w1, w0
    1ec0:	12000c21 	and	w1, w1, #0xf
    1ec4:	51001421 	sub	w1, w1, #0x5
    1ec8:	7100083f 	cmp	w1, #0x2
    1ecc:	540001e8 	b.hi	1f08 <map_tmp_param+0xbc>  // b.pmore
/home/neu/Desktop/OPTEE/source/public/optee_src/optee/optee_os/lib/libutee/tee_api.c:123
    1ed0:	a9405361 	ldp	x1, x20, [x27]
/home/neu/Desktop/OPTEE/source/public/optee_src/optee/optee_os/lib/libutee/tee_api.c:133
    1ed4:	f100003f 	cmp	x1, #0x0
    1ed8:	fa401a84 	ccmp	x20, #0x0, #0x4, ne  // ne = any
    1edc:	54000160 	b.eq	1f08 <map_tmp_param+0xbc>  // b.none
/home/neu/Desktop/OPTEE/source/public/optee_src/optee/optee_os/lib/libutee/tee_api.c:134 (discriminator 1)
    1ee0:	aa1403e2 	mov	x2, x20
    1ee4:	52800020 	mov	w0, #0x1                   	// #1
    1ee8:	b9006fe3 	str	w3, [sp, #108]
    1eec:	97ffffb6 	bl	1dc4 <TEE_CheckMemoryAccessRights>
/home/neu/Desktop/OPTEE/source/public/optee_src/optee/optee_os/lib/libutee/tee_api.c:133 (discriminator 1)
    1ef0:	b9406fe3 	ldr	w3, [sp, #108]
    1ef4:	350000a0 	cbnz	w0, 1f08 <map_tmp_param+0xbc>
/home/neu/Desktop/OPTEE/source/public/optee_src/optee/optee_os/lib/libutee/tee_api.c:136
    1ef8:	91003e94 	add	x20, x20, #0xf
/home/neu/Desktop/OPTEE/source/public/optee_src/optee/optee_os/lib/libutee/tee_api.c:135
    1efc:	383c6a63 	strb	w3, [x19, x28]
/home/neu/Desktop/OPTEE/source/public/optee_src/optee/optee_os/lib/libutee/tee_api.c:136
    1f00:	927cee94 	and	x20, x20, #0xfffffffffffffff0
    1f04:	8b14035a 	add	x26, x26, x20
/home/neu/Desktop/OPTEE/source/public/optee_src/optee/optee_os/lib/libutee/tee_api.c:116 (discriminator 2)
    1f08:	91000673 	add	x19, x19, #0x1
    1f0c:	9100437b 	add	x27, x27, #0x10
    1f10:	f100127f 	cmp	x19, #0x4
    1f14:	54fffce1 	b.ne	1eb0 <map_tmp_param+0x64>  // b.any
/home/neu/Desktop/OPTEE/source/public/optee_src/optee/optee_os/lib/libutee/tee_api.c:144
    1f18:	b400053a 	cbz	x26, 1fbc <map_tmp_param+0x170>
/home/neu/Desktop/OPTEE/source/public/optee_src/optee/optee_os/lib/libutee/tee_api.c:145
    1f1c:	2a1303e1 	mov	w1, w19
    1f20:	aa1a03e0 	mov	x0, x26
    1f24:	940009d1 	bl	4668 <tee_map_zi>
/home/neu/Desktop/OPTEE/source/public/optee_src/optee/optee_os/lib/libutee/tee_api.c:146
    1f28:	b40004e0 	cbz	x0, 1fc4 <map_tmp_param+0x178>
/home/neu/Desktop/OPTEE/source/public/optee_src/optee/optee_os/lib/libutee/tee_api.c:148
    1f2c:	f90002e0 	str	x0, [x23]
/home/neu/Desktop/OPTEE/source/public/optee_src/optee/optee_os/lib/libutee/tee_api.c:149
    1f30:	f90002da 	str	x26, [x22]
/home/neu/Desktop/OPTEE/source/public/optee_src/optee/optee_os/lib/libutee/tee_api.c:157
    1f34:	9101c3f6 	add	x22, sp, #0x70
/home/neu/Desktop/OPTEE/source/public/optee_src/optee/optee_os/lib/libutee/tee_api.c:100
    1f38:	d2800013 	mov	x19, #0x0                   	// #0
/home/neu/Desktop/OPTEE/source/public/optee_src/optee/optee_os/lib/libutee/tee_api.c:153
    1f3c:	f9400323 	ldr	x3, [x25]
    1f40:	531e7661 	lsl	w1, w19, #2
    1f44:	1ac12463 	lsr	w3, w3, w1
    1f48:	12000c63 	and	w3, w3, #0xf
    1f4c:	51001461 	sub	w1, w3, #0x5
    1f50:	7100083f 	cmp	w1, #0x2
    1f54:	540001a8 	b.hi	1f88 <map_tmp_param+0x13c>  // b.pmore
/home/neu/Desktop/OPTEE/source/public/optee_src/optee/optee_os/lib/libutee/tee_api.c:157
    1f58:	38766a61 	ldrb	w1, [x19, x22]
    1f5c:	34000161 	cbz	w1, 1f88 <map_tmp_param+0x13c>
/home/neu/Desktop/OPTEE/source/public/optee_src/optee/optee_os/lib/libutee/tee_api.c:159
    1f60:	a9400b01 	ldp	x1, x2, [x24]
/home/neu/Desktop/OPTEE/source/public/optee_src/optee/optee_os/lib/libutee/tee_api.c:161
    1f64:	f8337aa0 	str	x0, [x21, x19, lsl #3]
/home/neu/Desktop/OPTEE/source/public/optee_src/optee/optee_os/lib/libutee/tee_api.c:163
    1f68:	f9000300 	str	x0, [x24]
/home/neu/Desktop/OPTEE/source/public/optee_src/optee/optee_os/lib/libutee/tee_api.c:164
    1f6c:	7100187f 	cmp	w3, #0x6
/home/neu/Desktop/OPTEE/source/public/optee_src/optee/optee_os/lib/libutee/tee_api.c:162
    1f70:	91003c54 	add	x20, x2, #0xf
    1f74:	927cee94 	and	x20, x20, #0xfffffffffffffff0
    1f78:	8b140014 	add	x20, x0, x20
/home/neu/Desktop/OPTEE/source/public/optee_src/optee/optee_os/lib/libutee/tee_api.c:164
    1f7c:	54000040 	b.eq	1f84 <map_tmp_param+0x138>  // b.none
/home/neu/Desktop/OPTEE/source/public/optee_src/optee/optee_os/lib/libutee/tee_api.c:166
    1f80:	97fff828 	bl	20 <memcpy>
/home/neu/Desktop/OPTEE/source/public/optee_src/optee/optee_os/lib/libutee/tee_api.c:162
    1f84:	aa1403e0 	mov	x0, x20
/home/neu/Desktop/OPTEE/source/public/optee_src/optee/optee_os/lib/libutee/tee_api.c:152 (discriminator 2)
    1f88:	91000673 	add	x19, x19, #0x1
    1f8c:	91004318 	add	x24, x24, #0x10
    1f90:	f100127f 	cmp	x19, #0x4
    1f94:	54fffd41 	b.ne	1f3c <map_tmp_param+0xf0>  // b.any
/home/neu/Desktop/OPTEE/source/public/optee_src/optee/optee_os/lib/libutee/tee_api.c:173
    1f98:	52800000 	mov	w0, #0x0                   	// #0
/home/neu/Desktop/OPTEE/source/public/optee_src/optee/optee_os/lib/libutee/tee_api.c:175
    1f9c:	d0000084 	adrp	x4, 13000 <_DYNAMIC>
    1fa0:	f9409884 	ldr	x4, [x4, #304]
    1fa4:	f9403fe1 	ldr	x1, [sp, #120]
    1fa8:	f9400082 	ldr	x2, [x4]
    1fac:	eb020021 	subs	x1, x1, x2
    1fb0:	d2800002 	mov	x2, #0x0                   	// #0
    1fb4:	540000c0 	b.eq	1fcc <map_tmp_param+0x180>  // b.none
    1fb8:	97fff960 	bl	538 <__stack_chk_fail>
/home/neu/Desktop/OPTEE/source/public/optee_src/optee/optee_os/lib/libutee/tee_api.c:100
    1fbc:	d2800000 	mov	x0, #0x0                   	// #0
    1fc0:	17ffffdd 	b	1f34 <map_tmp_param+0xe8>
/home/neu/Desktop/OPTEE/source/public/optee_src/optee/optee_os/lib/libutee/tee_api.c:147
    1fc4:	129ffe60 	mov	w0, #0xffff000c            	// #-65524
    1fc8:	17fffff5 	b	1f9c <map_tmp_param+0x150>
/home/neu/Desktop/OPTEE/source/public/optee_src/optee/optee_os/lib/libutee/tee_api.c:175
    1fcc:	a94153f3 	ldp	x19, x20, [sp, #16]
    1fd0:	a9425bf5 	ldp	x21, x22, [sp, #32]
    1fd4:	a94363f7 	ldp	x23, x24, [sp, #48]
    1fd8:	a9446bf9 	ldp	x25, x26, [sp, #64]
    1fdc:	a94573fb 	ldp	x27, x28, [sp, #80]
    1fe0:	a8c87bfd 	ldp	x29, x30, [sp], #128
    1fe4:	d65f03c0 	ret

0000000000001fe8 <TEE_OpenTASession>:
TEE_OpenTASession():
/home/neu/Desktop/OPTEE/source/public/optee_src/optee/optee_os/lib/libutee/tee_api.c:323
    1fe8:	a9b27bfd 	stp	x29, x30, [sp, #-224]!
    1fec:	d0000086 	adrp	x6, 13000 <_DYNAMIC>
    1ff0:	910003fd 	mov	x29, sp
    1ff4:	f94098c6 	ldr	x6, [x6, #304]
    1ff8:	a90363f7 	stp	x23, x24, [sp, #48]
    1ffc:	aa0003f7 	mov	x23, x0
    2000:	f94000c0 	ldr	x0, [x6]
    2004:	f9006fe0 	str	x0, [sp, #216]
    2008:	d2800000 	mov	x0, #0x0                   	// #0
    200c:	a90153f3 	stp	x19, x20, [sp, #16]
    2010:	2a0103f8 	mov	w24, w1
    2014:	a9025bf5 	stp	x21, x22, [sp, #32]
    2018:	2a0203f3 	mov	w19, w2
    201c:	aa0303f4 	mov	x20, x3
    2020:	a9046bf9 	stp	x25, x26, [sp, #64]
    2024:	aa0403f5 	mov	x21, x4
    2028:	aa0503f9 	mov	x25, x5
/home/neu/Desktop/OPTEE/source/public/optee_src/optee/optee_os/lib/libutee/tee_api.c:326
    202c:	b9005fff 	str	wzr, [sp, #92]
/home/neu/Desktop/OPTEE/source/public/optee_src/optee/optee_os/lib/libutee/tee_api.c:328
    2030:	a9067fff 	stp	xzr, xzr, [sp, #96]
/home/neu/Desktop/OPTEE/source/public/optee_src/optee/optee_os/lib/libutee/tee_api.c:329
    2034:	a9077fff 	stp	xzr, xzr, [sp, #112]
    2038:	a9087fff 	stp	xzr, xzr, [sp, #128]
/home/neu/Desktop/OPTEE/source/public/optee_src/optee/optee_os/lib/libutee/tee_api.c:325
    203c:	a9097fff 	stp	xzr, xzr, [sp, #144]
    2040:	a90a7fff 	stp	xzr, xzr, [sp, #160]
    2044:	a90b7fff 	stp	xzr, xzr, [sp, #176]
    2048:	a90c7fff 	stp	xzr, xzr, [sp, #192]
    204c:	f9006bff 	str	xzr, [sp, #208]
/home/neu/Desktop/OPTEE/source/public/optee_src/optee/optee_os/lib/libutee/tee_api.c:331
    2050:	340000e2 	cbz	w2, 206c <TEE_OpenTASession+0x84>
/home/neu/Desktop/OPTEE/source/public/optee_src/optee/optee_os/lib/libutee/tee_api.c:332
    2054:	aa0303e0 	mov	x0, x3
    2058:	d2800801 	mov	x1, #0x40                  	// #64
    205c:	94000959 	bl	45c0 <__utee_check_inout_annotation>
/home/neu/Desktop/OPTEE/source/public/optee_src/optee/optee_os/lib/libutee/tee_api.c:335
    2060:	aa1403e1 	mov	x1, x20
    2064:	2a1303e0 	mov	w0, w19
    2068:	97fffe86 	bl	1a80 <check_invoke_param>
/home/neu/Desktop/OPTEE/source/public/optee_src/optee/optee_os/lib/libutee/tee_api.c:337
    206c:	aa1503e0 	mov	x0, x21
/home/neu/Desktop/OPTEE/source/public/optee_src/optee/optee_os/lib/libutee/tee_api.c:339
    2070:	910243f6 	add	x22, sp, #0x90
/home/neu/Desktop/OPTEE/source/public/optee_src/optee/optee_os/lib/libutee/tee_api.c:337
    2074:	d2800101 	mov	x1, #0x8                   	// #8
    2078:	94000938 	bl	4558 <__utee_check_out_annotation>
/home/neu/Desktop/OPTEE/source/public/optee_src/optee/optee_os/lib/libutee/tee_api.c:339
    207c:	2a1303e1 	mov	w1, w19
    2080:	aa1403e2 	mov	x2, x20
    2084:	aa1603e0 	mov	x0, x22
/home/neu/Desktop/OPTEE/source/public/optee_src/optee/optee_os/lib/libutee/tee_api.c:340
    2088:	9101c3fa 	add	x26, sp, #0x70
/home/neu/Desktop/OPTEE/source/public/optee_src/optee/optee_os/lib/libutee/tee_api.c:339
    208c:	97fffe10 	bl	18cc <copy_param>
/home/neu/Desktop/OPTEE/source/public/optee_src/optee/optee_os/lib/libutee/tee_api.c:340
    2090:	aa1a03e3 	mov	x3, x26
    2094:	9101a3e2 	add	x2, sp, #0x68
    2098:	910183e1 	add	x1, sp, #0x60
    209c:	aa1603e0 	mov	x0, x22
    20a0:	97ffff6b 	bl	1e4c <map_tmp_param>
    20a4:	2a0003f3 	mov	w19, w0
/home/neu/Desktop/OPTEE/source/public/optee_src/optee/optee_os/lib/libutee/tee_api.c:341
    20a8:	35000260 	cbnz	w0, 20f4 <TEE_OpenTASession+0x10c>
/home/neu/Desktop/OPTEE/source/public/optee_src/optee/optee_os/lib/libutee/tee_api.c:343
    20ac:	aa1903e4 	mov	x4, x25
    20b0:	910173e3 	add	x3, sp, #0x5c
    20b4:	aa1603e2 	mov	x2, x22
    20b8:	2a1803e1 	mov	w1, w24
    20bc:	aa1703e0 	mov	x0, x23
    20c0:	94000c7e 	bl	52b8 <_utee_open_ta_session>
/home/neu/Desktop/OPTEE/source/public/optee_src/optee/optee_os/lib/libutee/tee_api.c:345
    20c4:	aa1603e2 	mov	x2, x22
/home/neu/Desktop/OPTEE/source/public/optee_src/optee/optee_os/lib/libutee/tee_api.c:343
    20c8:	2a0003f3 	mov	w19, w0
/home/neu/Desktop/OPTEE/source/public/optee_src/optee/optee_os/lib/libutee/tee_api.c:345
    20cc:	aa1a03e1 	mov	x1, x26
    20d0:	aa1403e0 	mov	x0, x20
    20d4:	97fffe95 	bl	1b28 <update_out_param>
/home/neu/Desktop/OPTEE/source/public/optee_src/optee/optee_os/lib/libutee/tee_api.c:346
    20d8:	f94033e0 	ldr	x0, [sp, #96]
    20dc:	b40000a0 	cbz	x0, 20f0 <TEE_OpenTASession+0x108>
/home/neu/Desktop/OPTEE/source/public/optee_src/optee/optee_os/lib/libutee/tee_api.c:347
    20e0:	f94037e1 	ldr	x1, [sp, #104]
    20e4:	9400098d 	bl	4718 <tee_unmap>
/home/neu/Desktop/OPTEE/source/public/optee_src/optee/optee_os/lib/libutee/tee_api.c:349
    20e8:	34000040 	cbz	w0, 20f0 <TEE_OpenTASession+0x108>
/home/neu/Desktop/OPTEE/source/public/optee_src/optee/optee_os/lib/libutee/tee_api.c:350
    20ec:	940008bd 	bl	43e0 <TEE_Panic>
/home/neu/Desktop/OPTEE/source/public/optee_src/optee/optee_os/lib/libutee/tee_api.c:359
    20f0:	34000053 	cbz	w19, 20f8 <TEE_OpenTASession+0x110>
/home/neu/Desktop/OPTEE/source/public/optee_src/optee/optee_os/lib/libutee/tee_api.c:360
    20f4:	b9005fff 	str	wzr, [sp, #92]
/home/neu/Desktop/OPTEE/source/public/optee_src/optee/optee_os/lib/libutee/tee_api.c:364
    20f8:	b0000086 	adrp	x6, 13000 <_DYNAMIC>
/home/neu/Desktop/OPTEE/source/public/optee_src/optee/optee_os/lib/libutee/tee_api.c:362
    20fc:	b9405fe0 	ldr	w0, [sp, #92]
    2100:	f90002a0 	str	x0, [x21]
/home/neu/Desktop/OPTEE/source/public/optee_src/optee/optee_os/lib/libutee/tee_api.c:364
    2104:	f94098c6 	ldr	x6, [x6, #304]
    2108:	f9406fe0 	ldr	x0, [sp, #216]
    210c:	f94000c1 	ldr	x1, [x6]
    2110:	eb010000 	subs	x0, x0, x1
    2114:	d2800001 	mov	x1, #0x0                   	// #0
    2118:	54000040 	b.eq	2120 <TEE_OpenTASession+0x138>  // b.none
    211c:	97fff907 	bl	538 <__stack_chk_fail>
    2120:	2a1303e0 	mov	w0, w19
    2124:	a94153f3 	ldp	x19, x20, [sp, #16]
    2128:	a9425bf5 	ldp	x21, x22, [sp, #32]
    212c:	a94363f7 	ldp	x23, x24, [sp, #48]
    2130:	a9446bf9 	ldp	x25, x26, [sp, #64]
    2134:	a8ce7bfd 	ldp	x29, x30, [sp], #224
    2138:	d65f03c0 	ret

000000000000213c <__GP11_TEE_OpenTASession>:
__GP11_TEE_OpenTASession():
/home/neu/Desktop/OPTEE/source/public/optee_src/optee/optee_os/lib/libutee/tee_api.c:372
    213c:	a9b27bfd 	stp	x29, x30, [sp, #-224]!
    2140:	b0000086 	adrp	x6, 13000 <_DYNAMIC>
    2144:	910003fd 	mov	x29, sp
    2148:	f94098c6 	ldr	x6, [x6, #304]
    214c:	a90363f7 	stp	x23, x24, [sp, #48]
    2150:	aa0003f7 	mov	x23, x0
    2154:	f94000c0 	ldr	x0, [x6]
    2158:	f9006fe0 	str	x0, [sp, #216]
    215c:	d2800000 	mov	x0, #0x0                   	// #0
    2160:	a90153f3 	stp	x19, x20, [sp, #16]
    2164:	2a0103f8 	mov	w24, w1
    2168:	a9025bf5 	stp	x21, x22, [sp, #32]
    216c:	2a0203f3 	mov	w19, w2
    2170:	aa0303f4 	mov	x20, x3
    2174:	a9046bf9 	stp	x25, x26, [sp, #64]
    2178:	aa0403f5 	mov	x21, x4
    217c:	aa0503f9 	mov	x25, x5
/home/neu/Desktop/OPTEE/source/public/optee_src/optee/optee_os/lib/libutee/tee_api.c:376
    2180:	b9005fff 	str	wzr, [sp, #92]
/home/neu/Desktop/OPTEE/source/public/optee_src/optee/optee_os/lib/libutee/tee_api.c:378
    2184:	a9067fff 	stp	xzr, xzr, [sp, #96]
/home/neu/Desktop/OPTEE/source/public/optee_src/optee/optee_os/lib/libutee/tee_api.c:379
    2188:	a9077fff 	stp	xzr, xzr, [sp, #112]
    218c:	a9087fff 	stp	xzr, xzr, [sp, #128]
/home/neu/Desktop/OPTEE/source/public/optee_src/optee/optee_os/lib/libutee/tee_api.c:375
    2190:	a9097fff 	stp	xzr, xzr, [sp, #144]
    2194:	a90a7fff 	stp	xzr, xzr, [sp, #160]
    2198:	a90b7fff 	stp	xzr, xzr, [sp, #176]
    219c:	a90c7fff 	stp	xzr, xzr, [sp, #192]
    21a0:	f9006bff 	str	xzr, [sp, #208]
/home/neu/Desktop/OPTEE/source/public/optee_src/optee/optee_os/lib/libutee/tee_api.c:381
    21a4:	34000082 	cbz	w2, 21b4 <__GP11_TEE_OpenTASession+0x78>
/home/neu/Desktop/OPTEE/source/public/optee_src/optee/optee_os/lib/libutee/tee_api.c:382
    21a8:	aa0303e0 	mov	x0, x3
    21ac:	d2800801 	mov	x1, #0x40                  	// #64
    21b0:	94000904 	bl	45c0 <__utee_check_inout_annotation>
/home/neu/Desktop/OPTEE/source/public/optee_src/optee/optee_os/lib/libutee/tee_api.c:385
    21b4:	aa1503e0 	mov	x0, x21
/home/neu/Desktop/OPTEE/source/public/optee_src/optee/optee_os/lib/libutee/tee_api.c:387
    21b8:	910243f6 	add	x22, sp, #0x90
/home/neu/Desktop/OPTEE/source/public/optee_src/optee/optee_os/lib/libutee/tee_api.c:385
    21bc:	d2800101 	mov	x1, #0x8                   	// #8
    21c0:	940008e6 	bl	4558 <__utee_check_out_annotation>
/home/neu/Desktop/OPTEE/source/public/optee_src/optee/optee_os/lib/libutee/tee_api.c:387
    21c4:	2a1303e1 	mov	w1, w19
    21c8:	aa1403e2 	mov	x2, x20
    21cc:	aa1603e0 	mov	x0, x22
/home/neu/Desktop/OPTEE/source/public/optee_src/optee/optee_os/lib/libutee/tee_api.c:388
    21d0:	9101c3fa 	add	x26, sp, #0x70
/home/neu/Desktop/OPTEE/source/public/optee_src/optee/optee_os/lib/libutee/tee_api.c:387
    21d4:	97fffdd9 	bl	1938 <copy_gp11_param>
/home/neu/Desktop/OPTEE/source/public/optee_src/optee/optee_os/lib/libutee/tee_api.c:388
    21d8:	aa1a03e3 	mov	x3, x26
    21dc:	9101a3e2 	add	x2, sp, #0x68
    21e0:	910183e1 	add	x1, sp, #0x60
    21e4:	aa1603e0 	mov	x0, x22
    21e8:	97ffff19 	bl	1e4c <map_tmp_param>
    21ec:	2a0003f3 	mov	w19, w0
/home/neu/Desktop/OPTEE/source/public/optee_src/optee/optee_os/lib/libutee/tee_api.c:389
    21f0:	35000260 	cbnz	w0, 223c <__GP11_TEE_OpenTASession+0x100>
/home/neu/Desktop/OPTEE/source/public/optee_src/optee/optee_os/lib/libutee/tee_api.c:391
    21f4:	aa1903e4 	mov	x4, x25
    21f8:	910173e3 	add	x3, sp, #0x5c
    21fc:	aa1603e2 	mov	x2, x22
    2200:	2a1803e1 	mov	w1, w24
    2204:	aa1703e0 	mov	x0, x23
    2208:	94000c2c 	bl	52b8 <_utee_open_ta_session>
/home/neu/Desktop/OPTEE/source/public/optee_src/optee/optee_os/lib/libutee/tee_api.c:393
    220c:	aa1603e2 	mov	x2, x22
/home/neu/Desktop/OPTEE/source/public/optee_src/optee/optee_os/lib/libutee/tee_api.c:391
    2210:	2a0003f3 	mov	w19, w0
/home/neu/Desktop/OPTEE/source/public/optee_src/optee/optee_os/lib/libutee/tee_api.c:393
    2214:	aa1a03e1 	mov	x1, x26
    2218:	aa1403e0 	mov	x0, x20
    221c:	97fffe6d 	bl	1bd0 <update_out_gp11_param>
/home/neu/Desktop/OPTEE/source/public/optee_src/optee/optee_os/lib/libutee/tee_api.c:394
    2220:	f94033e0 	ldr	x0, [sp, #96]
    2224:	b40000a0 	cbz	x0, 2238 <__GP11_TEE_OpenTASession+0xfc>
/home/neu/Desktop/OPTEE/source/public/optee_src/optee/optee_os/lib/libutee/tee_api.c:395
    2228:	f94037e1 	ldr	x1, [sp, #104]
    222c:	9400093b 	bl	4718 <tee_unmap>
/home/neu/Desktop/OPTEE/source/public/optee_src/optee/optee_os/lib/libutee/tee_api.c:397
    2230:	34000040 	cbz	w0, 2238 <__GP11_TEE_OpenTASession+0xfc>
/home/neu/Desktop/OPTEE/source/public/optee_src/optee/optee_os/lib/libutee/tee_api.c:398
    2234:	9400086b 	bl	43e0 <TEE_Panic>
/home/neu/Desktop/OPTEE/source/public/optee_src/optee/optee_os/lib/libutee/tee_api.c:407
    2238:	34000053 	cbz	w19, 2240 <__GP11_TEE_OpenTASession+0x104>
/home/neu/Desktop/OPTEE/source/public/optee_src/optee/optee_os/lib/libutee/tee_api.c:408
    223c:	b9005fff 	str	wzr, [sp, #92]
/home/neu/Desktop/OPTEE/source/public/optee_src/optee/optee_os/lib/libutee/tee_api.c:412
    2240:	b0000086 	adrp	x6, 13000 <_DYNAMIC>
/home/neu/Desktop/OPTEE/source/public/optee_src/optee/optee_os/lib/libutee/tee_api.c:410
    2244:	b9405fe0 	ldr	w0, [sp, #92]
    2248:	f90002a0 	str	x0, [x21]
/home/neu/Desktop/OPTEE/source/public/optee_src/optee/optee_os/lib/libutee/tee_api.c:412
    224c:	f94098c6 	ldr	x6, [x6, #304]
    2250:	f9406fe0 	ldr	x0, [sp, #216]
    2254:	f94000c1 	ldr	x1, [x6]
    2258:	eb010000 	subs	x0, x0, x1
    225c:	d2800001 	mov	x1, #0x0                   	// #0
    2260:	54000040 	b.eq	2268 <__GP11_TEE_OpenTASession+0x12c>  // b.none
    2264:	97fff8b5 	bl	538 <__stack_chk_fail>
    2268:	2a1303e0 	mov	w0, w19
    226c:	a94153f3 	ldp	x19, x20, [sp, #16]
    2270:	a9425bf5 	ldp	x21, x22, [sp, #32]
    2274:	a94363f7 	ldp	x23, x24, [sp, #48]
    2278:	a9446bf9 	ldp	x25, x26, [sp, #64]
    227c:	a8ce7bfd 	ldp	x29, x30, [sp], #224
    2280:	d65f03c0 	ret

0000000000002284 <TEE_InvokeTACommand>:
TEE_InvokeTACommand():
/home/neu/Desktop/OPTEE/source/public/optee_src/optee/optee_os/lib/libutee/tee_api.c:429
    2284:	a9b27bfd 	stp	x29, x30, [sp, #-224]!
    2288:	b0000086 	adrp	x6, 13000 <_DYNAMIC>
    228c:	910003fd 	mov	x29, sp
    2290:	f94098c6 	ldr	x6, [x6, #304]
    2294:	a9025bf5 	stp	x21, x22, [sp, #32]
    2298:	aa0003f6 	mov	x22, x0
    229c:	f94000c0 	ldr	x0, [x6]
    22a0:	f9006fe0 	str	x0, [sp, #216]
    22a4:	d2800000 	mov	x0, #0x0                   	// #0
    22a8:	a90153f3 	stp	x19, x20, [sp, #16]
/home/neu/Desktop/OPTEE/source/public/optee_src/optee/optee_os/lib/libutee/tee_api.c:432
    22ac:	52800060 	mov	w0, #0x3                   	// #3
/home/neu/Desktop/OPTEE/source/public/optee_src/optee/optee_os/lib/libutee/tee_api.c:429
    22b0:	a90363f7 	stp	x23, x24, [sp, #48]
    22b4:	2a0303f3 	mov	w19, w3
    22b8:	2a0103f7 	mov	w23, w1
    22bc:	a9046bf9 	stp	x25, x26, [sp, #64]
    22c0:	2a0203f8 	mov	w24, w2
    22c4:	aa0403f5 	mov	x21, x4
/home/neu/Desktop/OPTEE/source/public/optee_src/optee/optee_os/lib/libutee/tee_api.c:432
    22c8:	b9005fe0 	str	w0, [sp, #92]
/home/neu/Desktop/OPTEE/source/public/optee_src/optee/optee_os/lib/libutee/tee_api.c:429
    22cc:	aa0503f4 	mov	x20, x5
/home/neu/Desktop/OPTEE/source/public/optee_src/optee/optee_os/lib/libutee/tee_api.c:435
    22d0:	a9067fff 	stp	xzr, xzr, [sp, #96]
/home/neu/Desktop/OPTEE/source/public/optee_src/optee/optee_os/lib/libutee/tee_api.c:436
    22d4:	a9077fff 	stp	xzr, xzr, [sp, #112]
    22d8:	a9087fff 	stp	xzr, xzr, [sp, #128]
/home/neu/Desktop/OPTEE/source/public/optee_src/optee/optee_os/lib/libutee/tee_api.c:433
    22dc:	a9097fff 	stp	xzr, xzr, [sp, #144]
    22e0:	a90a7fff 	stp	xzr, xzr, [sp, #160]
    22e4:	a90b7fff 	stp	xzr, xzr, [sp, #176]
    22e8:	a90c7fff 	stp	xzr, xzr, [sp, #192]
    22ec:	f9006bff 	str	xzr, [sp, #208]
/home/neu/Desktop/OPTEE/source/public/optee_src/optee/optee_os/lib/libutee/tee_api.c:438
    22f0:	340000e3 	cbz	w3, 230c <TEE_InvokeTACommand+0x88>
/home/neu/Desktop/OPTEE/source/public/optee_src/optee/optee_os/lib/libutee/tee_api.c:439
    22f4:	aa0403e0 	mov	x0, x4
    22f8:	d2800801 	mov	x1, #0x40                  	// #64
    22fc:	940008b1 	bl	45c0 <__utee_check_inout_annotation>
/home/neu/Desktop/OPTEE/source/public/optee_src/optee/optee_os/lib/libutee/tee_api.c:442
    2300:	aa1503e1 	mov	x1, x21
    2304:	2a1303e0 	mov	w0, w19
    2308:	97fffdde 	bl	1a80 <check_invoke_param>
/home/neu/Desktop/OPTEE/source/public/optee_src/optee/optee_os/lib/libutee/tee_api.c:444
    230c:	b4000094 	cbz	x20, 231c <TEE_InvokeTACommand+0x98>
/home/neu/Desktop/OPTEE/source/public/optee_src/optee/optee_os/lib/libutee/tee_api.c:445
    2310:	aa1403e0 	mov	x0, x20
    2314:	d2800081 	mov	x1, #0x4                   	// #4
    2318:	94000890 	bl	4558 <__utee_check_out_annotation>
/home/neu/Desktop/OPTEE/source/public/optee_src/optee/optee_os/lib/libutee/tee_api.c:448
    231c:	910243f9 	add	x25, sp, #0x90
    2320:	2a1303e1 	mov	w1, w19
    2324:	aa1503e2 	mov	x2, x21
    2328:	aa1903e0 	mov	x0, x25
/home/neu/Desktop/OPTEE/source/public/optee_src/optee/optee_os/lib/libutee/tee_api.c:449
    232c:	9101c3fa 	add	x26, sp, #0x70
/home/neu/Desktop/OPTEE/source/public/optee_src/optee/optee_os/lib/libutee/tee_api.c:448
    2330:	97fffd67 	bl	18cc <copy_param>
/home/neu/Desktop/OPTEE/source/public/optee_src/optee/optee_os/lib/libutee/tee_api.c:449
    2334:	aa1a03e3 	mov	x3, x26
    2338:	9101a3e2 	add	x2, sp, #0x68
    233c:	910183e1 	add	x1, sp, #0x60
    2340:	aa1903e0 	mov	x0, x25
    2344:	97fffec2 	bl	1e4c <map_tmp_param>
    2348:	2a0003f3 	mov	w19, w0
/home/neu/Desktop/OPTEE/source/public/optee_src/optee/optee_os/lib/libutee/tee_api.c:450
    234c:	35000240 	cbnz	w0, 2394 <TEE_InvokeTACommand+0x110>
/home/neu/Desktop/OPTEE/source/public/optee_src/optee/optee_os/lib/libutee/tee_api.c:452
    2350:	910173e4 	add	x4, sp, #0x5c
    2354:	aa1903e3 	mov	x3, x25
    2358:	2a1803e2 	mov	w2, w24
    235c:	2a1703e1 	mov	w1, w23
    2360:	aa1603e0 	mov	x0, x22
    2364:	94000bdb 	bl	52d0 <_utee_invoke_ta_command>
/home/neu/Desktop/OPTEE/source/public/optee_src/optee/optee_os/lib/libutee/tee_api.c:455
    2368:	aa1903e2 	mov	x2, x25
/home/neu/Desktop/OPTEE/source/public/optee_src/optee/optee_os/lib/libutee/tee_api.c:452
    236c:	2a0003f3 	mov	w19, w0
/home/neu/Desktop/OPTEE/source/public/optee_src/optee/optee_os/lib/libutee/tee_api.c:455
    2370:	aa1a03e1 	mov	x1, x26
    2374:	aa1503e0 	mov	x0, x21
    2378:	97fffdec 	bl	1b28 <update_out_param>
/home/neu/Desktop/OPTEE/source/public/optee_src/optee/optee_os/lib/libutee/tee_api.c:456
    237c:	f94033e0 	ldr	x0, [sp, #96]
    2380:	b40000a0 	cbz	x0, 2394 <TEE_InvokeTACommand+0x110>
/home/neu/Desktop/OPTEE/source/public/optee_src/optee/optee_os/lib/libutee/tee_api.c:457
    2384:	f94037e1 	ldr	x1, [sp, #104]
    2388:	940008e4 	bl	4718 <tee_unmap>
/home/neu/Desktop/OPTEE/source/public/optee_src/optee/optee_os/lib/libutee/tee_api.c:459
    238c:	34000040 	cbz	w0, 2394 <TEE_InvokeTACommand+0x110>
/home/neu/Desktop/OPTEE/source/public/optee_src/optee/optee_os/lib/libutee/tee_api.c:460
    2390:	94000814 	bl	43e0 <TEE_Panic>
/home/neu/Desktop/OPTEE/source/public/optee_src/optee/optee_os/lib/libutee/tee_api.c:464
    2394:	b9405fe0 	ldr	w0, [sp, #92]
    2398:	b4000054 	cbz	x20, 23a0 <TEE_InvokeTACommand+0x11c>
/home/neu/Desktop/OPTEE/source/public/optee_src/optee/optee_os/lib/libutee/tee_api.c:465
    239c:	b9000280 	str	w0, [x20]
/home/neu/Desktop/OPTEE/source/public/optee_src/optee/optee_os/lib/libutee/tee_api.c:467
    23a0:	7100101f 	cmp	w0, #0x4
    23a4:	54000140 	b.eq	23cc <TEE_InvokeTACommand+0x148>  // b.none
/home/neu/Desktop/OPTEE/source/public/optee_src/optee/optee_os/lib/libutee/tee_api.c:470
    23a8:	7100027f 	cmp	w19, #0x0
    23ac:	129ffe60 	mov	w0, #0xffff000c            	// #-65524
    23b0:	7a401264 	ccmp	w19, w0, #0x4, ne  // ne = any
    23b4:	540000c0 	b.eq	23cc <TEE_InvokeTACommand+0x148>  // b.none
/home/neu/Desktop/OPTEE/source/public/optee_src/optee/optee_os/lib/libutee/tee_api.c:471
    23b8:	1299fb60 	mov	w0, #0xffff3024            	// #-53212
    23bc:	6b00027f 	cmp	w19, w0
    23c0:	54000060 	b.eq	23cc <TEE_InvokeTACommand+0x148>  // b.none
/home/neu/Desktop/OPTEE/source/public/optee_src/optee/optee_os/lib/libutee/tee_api.c:473
    23c4:	2a1303e0 	mov	w0, w19
    23c8:	94000806 	bl	43e0 <TEE_Panic>
/home/neu/Desktop/OPTEE/source/public/optee_src/optee/optee_os/lib/libutee/tee_api.c:476
    23cc:	b0000086 	adrp	x6, 13000 <_DYNAMIC>
    23d0:	f94098c6 	ldr	x6, [x6, #304]
    23d4:	f9406fe0 	ldr	x0, [sp, #216]
    23d8:	f94000c1 	ldr	x1, [x6]
    23dc:	eb010000 	subs	x0, x0, x1
    23e0:	d2800001 	mov	x1, #0x0                   	// #0
    23e4:	54000040 	b.eq	23ec <TEE_InvokeTACommand+0x168>  // b.none
    23e8:	97fff854 	bl	538 <__stack_chk_fail>
    23ec:	2a1303e0 	mov	w0, w19
    23f0:	a94153f3 	ldp	x19, x20, [sp, #16]
    23f4:	a9425bf5 	ldp	x21, x22, [sp, #32]
    23f8:	a94363f7 	ldp	x23, x24, [sp, #48]
    23fc:	a9446bf9 	ldp	x25, x26, [sp, #64]
    2400:	a8ce7bfd 	ldp	x29, x30, [sp], #224
    2404:	d65f03c0 	ret

0000000000002408 <__GP11_TEE_InvokeTACommand>:
__GP11_TEE_InvokeTACommand():
/home/neu/Desktop/OPTEE/source/public/optee_src/optee/optee_os/lib/libutee/tee_api.c:483
    2408:	a9b27bfd 	stp	x29, x30, [sp, #-224]!
    240c:	b0000086 	adrp	x6, 13000 <_DYNAMIC>
    2410:	910003fd 	mov	x29, sp
    2414:	f94098c6 	ldr	x6, [x6, #304]
    2418:	a90363f7 	stp	x23, x24, [sp, #48]
    241c:	aa0003f7 	mov	x23, x0
    2420:	f94000c0 	ldr	x0, [x6]
    2424:	f9006fe0 	str	x0, [sp, #216]
    2428:	d2800000 	mov	x0, #0x0                   	// #0
    242c:	a90153f3 	stp	x19, x20, [sp, #16]
/home/neu/Desktop/OPTEE/source/public/optee_src/optee/optee_os/lib/libutee/tee_api.c:486
    2430:	52800060 	mov	w0, #0x3                   	// #3
/home/neu/Desktop/OPTEE/source/public/optee_src/optee/optee_os/lib/libutee/tee_api.c:483
    2434:	a9025bf5 	stp	x21, x22, [sp, #32]
    2438:	2a0103f8 	mov	w24, w1
    243c:	2a0303f3 	mov	w19, w3
    2440:	a9046bf9 	stp	x25, x26, [sp, #64]
    2444:	aa0403f5 	mov	x21, x4
    2448:	2a0203f9 	mov	w25, w2
/home/neu/Desktop/OPTEE/source/public/optee_src/optee/optee_os/lib/libutee/tee_api.c:486
    244c:	b9005fe0 	str	w0, [sp, #92]
/home/neu/Desktop/OPTEE/source/public/optee_src/optee/optee_os/lib/libutee/tee_api.c:483
    2450:	aa0503f4 	mov	x20, x5
/home/neu/Desktop/OPTEE/source/public/optee_src/optee/optee_os/lib/libutee/tee_api.c:489
    2454:	a9067fff 	stp	xzr, xzr, [sp, #96]
/home/neu/Desktop/OPTEE/source/public/optee_src/optee/optee_os/lib/libutee/tee_api.c:490
    2458:	a9077fff 	stp	xzr, xzr, [sp, #112]
    245c:	a9087fff 	stp	xzr, xzr, [sp, #128]
/home/neu/Desktop/OPTEE/source/public/optee_src/optee/optee_os/lib/libutee/tee_api.c:487
    2460:	a9097fff 	stp	xzr, xzr, [sp, #144]
    2464:	a90a7fff 	stp	xzr, xzr, [sp, #160]
    2468:	a90b7fff 	stp	xzr, xzr, [sp, #176]
    246c:	a90c7fff 	stp	xzr, xzr, [sp, #192]
    2470:	f9006bff 	str	xzr, [sp, #208]
/home/neu/Desktop/OPTEE/source/public/optee_src/optee/optee_os/lib/libutee/tee_api.c:492
    2474:	34000083 	cbz	w3, 2484 <__GP11_TEE_InvokeTACommand+0x7c>
/home/neu/Desktop/OPTEE/source/public/optee_src/optee/optee_os/lib/libutee/tee_api.c:493
    2478:	aa0403e0 	mov	x0, x4
    247c:	d2800801 	mov	x1, #0x40                  	// #64
    2480:	94000850 	bl	45c0 <__utee_check_inout_annotation>
/home/neu/Desktop/OPTEE/source/public/optee_src/optee/optee_os/lib/libutee/tee_api.c:496
    2484:	b4000094 	cbz	x20, 2494 <__GP11_TEE_InvokeTACommand+0x8c>
/home/neu/Desktop/OPTEE/source/public/optee_src/optee/optee_os/lib/libutee/tee_api.c:497
    2488:	aa1403e0 	mov	x0, x20
    248c:	d2800081 	mov	x1, #0x4                   	// #4
    2490:	94000832 	bl	4558 <__utee_check_out_annotation>
/home/neu/Desktop/OPTEE/source/public/optee_src/optee/optee_os/lib/libutee/tee_api.c:500
    2494:	910243f6 	add	x22, sp, #0x90
    2498:	2a1303e1 	mov	w1, w19
    249c:	aa1503e2 	mov	x2, x21
    24a0:	aa1603e0 	mov	x0, x22
/home/neu/Desktop/OPTEE/source/public/optee_src/optee/optee_os/lib/libutee/tee_api.c:501
    24a4:	9101c3fa 	add	x26, sp, #0x70
/home/neu/Desktop/OPTEE/source/public/optee_src/optee/optee_os/lib/libutee/tee_api.c:500
    24a8:	97fffd24 	bl	1938 <copy_gp11_param>
/home/neu/Desktop/OPTEE/source/public/optee_src/optee/optee_os/lib/libutee/tee_api.c:501
    24ac:	aa1a03e3 	mov	x3, x26
    24b0:	9101a3e2 	add	x2, sp, #0x68
    24b4:	910183e1 	add	x1, sp, #0x60
    24b8:	aa1603e0 	mov	x0, x22
    24bc:	97fffe64 	bl	1e4c <map_tmp_param>
    24c0:	2a0003f3 	mov	w19, w0
/home/neu/Desktop/OPTEE/source/public/optee_src/optee/optee_os/lib/libutee/tee_api.c:502
    24c4:	35000240 	cbnz	w0, 250c <__GP11_TEE_InvokeTACommand+0x104>
/home/neu/Desktop/OPTEE/source/public/optee_src/optee/optee_os/lib/libutee/tee_api.c:504
    24c8:	910173e4 	add	x4, sp, #0x5c
    24cc:	aa1603e3 	mov	x3, x22
    24d0:	2a1903e2 	mov	w2, w25
    24d4:	2a1803e1 	mov	w1, w24
    24d8:	aa1703e0 	mov	x0, x23
    24dc:	94000b7d 	bl	52d0 <_utee_invoke_ta_command>
/home/neu/Desktop/OPTEE/source/public/optee_src/optee/optee_os/lib/libutee/tee_api.c:507
    24e0:	aa1603e2 	mov	x2, x22
/home/neu/Desktop/OPTEE/source/public/optee_src/optee/optee_os/lib/libutee/tee_api.c:504
    24e4:	2a0003f3 	mov	w19, w0
/home/neu/Desktop/OPTEE/source/public/optee_src/optee/optee_os/lib/libutee/tee_api.c:507
    24e8:	aa1a03e1 	mov	x1, x26
    24ec:	aa1503e0 	mov	x0, x21
    24f0:	97fffdb8 	bl	1bd0 <update_out_gp11_param>
/home/neu/Desktop/OPTEE/source/public/optee_src/optee/optee_os/lib/libutee/tee_api.c:508
    24f4:	f94033e0 	ldr	x0, [sp, #96]
    24f8:	b40000a0 	cbz	x0, 250c <__GP11_TEE_InvokeTACommand+0x104>
/home/neu/Desktop/OPTEE/source/public/optee_src/optee/optee_os/lib/libutee/tee_api.c:509
    24fc:	f94037e1 	ldr	x1, [sp, #104]
    2500:	94000886 	bl	4718 <tee_unmap>
/home/neu/Desktop/OPTEE/source/public/optee_src/optee/optee_os/lib/libutee/tee_api.c:511
    2504:	34000040 	cbz	w0, 250c <__GP11_TEE_InvokeTACommand+0x104>
/home/neu/Desktop/OPTEE/source/public/optee_src/optee/optee_os/lib/libutee/tee_api.c:512
    2508:	940007b6 	bl	43e0 <TEE_Panic>
/home/neu/Desktop/OPTEE/source/public/optee_src/optee/optee_os/lib/libutee/tee_api.c:516
    250c:	b9405fe0 	ldr	w0, [sp, #92]
    2510:	b4000054 	cbz	x20, 2518 <__GP11_TEE_InvokeTACommand+0x110>
/home/neu/Desktop/OPTEE/source/public/optee_src/optee/optee_os/lib/libutee/tee_api.c:517
    2514:	b9000280 	str	w0, [x20]
/home/neu/Desktop/OPTEE/source/public/optee_src/optee/optee_os/lib/libutee/tee_api.c:519
    2518:	7100101f 	cmp	w0, #0x4
    251c:	54000140 	b.eq	2544 <__GP11_TEE_InvokeTACommand+0x13c>  // b.none
/home/neu/Desktop/OPTEE/source/public/optee_src/optee/optee_os/lib/libutee/tee_api.c:522
    2520:	7100027f 	cmp	w19, #0x0
    2524:	129ffe60 	mov	w0, #0xffff000c            	// #-65524
    2528:	7a401264 	ccmp	w19, w0, #0x4, ne  // ne = any
    252c:	540000c0 	b.eq	2544 <__GP11_TEE_InvokeTACommand+0x13c>  // b.none
/home/neu/Desktop/OPTEE/source/public/optee_src/optee/optee_os/lib/libutee/tee_api.c:523
    2530:	1299fb60 	mov	w0, #0xffff3024            	// #-53212
    2534:	6b00027f 	cmp	w19, w0
    2538:	54000060 	b.eq	2544 <__GP11_TEE_InvokeTACommand+0x13c>  // b.none
/home/neu/Desktop/OPTEE/source/public/optee_src/optee/optee_os/lib/libutee/tee_api.c:525
    253c:	2a1303e0 	mov	w0, w19
    2540:	940007a8 	bl	43e0 <TEE_Panic>
/home/neu/Desktop/OPTEE/source/public/optee_src/optee/optee_os/lib/libutee/tee_api.c:528
    2544:	b0000086 	adrp	x6, 13000 <_DYNAMIC>
    2548:	f94098c6 	ldr	x6, [x6, #304]
    254c:	f9406fe0 	ldr	x0, [sp, #216]
    2550:	f94000c1 	ldr	x1, [x6]
    2554:	eb010000 	subs	x0, x0, x1
    2558:	d2800001 	mov	x1, #0x0                   	// #0
    255c:	54000040 	b.eq	2564 <__GP11_TEE_InvokeTACommand+0x15c>  // b.none
    2560:	97fff7f6 	bl	538 <__stack_chk_fail>
    2564:	2a1303e0 	mov	w0, w19
    2568:	a94153f3 	ldp	x19, x20, [sp, #16]
    256c:	a9425bf5 	ldp	x21, x22, [sp, #32]
    2570:	a94363f7 	ldp	x23, x24, [sp, #48]
    2574:	a9446bf9 	ldp	x25, x26, [sp, #64]
    2578:	a8ce7bfd 	ldp	x29, x30, [sp], #224
    257c:	d65f03c0 	ret

0000000000002580 <__GP11_TEE_CheckMemoryAccessRights>:
__GP11_TEE_CheckMemoryAccessRights():
/home/neu/Desktop/OPTEE/source/public/optee_src/optee/optee_os/lib/libutee/tee_api.c:600
    2580:	2a0203e2 	mov	w2, w2
    2584:	17fffe10 	b	1dc4 <TEE_CheckMemoryAccessRights>

0000000000002588 <TEE_SetInstanceData>:
TEE_SetInstanceData():
/home/neu/Desktop/OPTEE/source/public/optee_src/optee/optee_os/lib/libutee/tee_api.c:605
    2588:	b0000081 	adrp	x1, 13000 <_DYNAMIC>
    258c:	f902e020 	str	x0, [x1, #1472]
/home/neu/Desktop/OPTEE/source/public/optee_src/optee/optee_os/lib/libutee/tee_api.c:606
    2590:	d65f03c0 	ret

0000000000002594 <TEE_GetInstanceData>:
TEE_GetInstanceData():
/home/neu/Desktop/OPTEE/source/public/optee_src/optee/optee_os/lib/libutee/tee_api.c:611
    2594:	b0000080 	adrp	x0, 13000 <_DYNAMIC>
    2598:	f942e000 	ldr	x0, [x0, #1472]
    259c:	d65f03c0 	ret

00000000000025a0 <TEE_MemMove>:
TEE_MemMove():
/home/neu/Desktop/OPTEE/source/public/optee_src/optee/optee_os/lib/libutee/tee_api.c:615
    25a0:	14002f75 	b	e374 <memmove>

00000000000025a4 <__GP11_TEE_MemMove>:
__GP11_TEE_MemMove():
/home/neu/Desktop/OPTEE/source/public/optee_src/optee/optee_os/lib/libutee/tee_api.c:620
    25a4:	2a0203e2 	mov	w2, w2
    25a8:	17fffffe 	b	25a0 <TEE_MemMove>

00000000000025ac <TEE_MemCompare>:
TEE_MemCompare():
/home/neu/Desktop/OPTEE/source/public/optee_src/optee/optee_os/lib/libutee/tee_api.c:625
    25ac:	14003013 	b	e5f8 <consttime_memcmp>

00000000000025b0 <__GP11_TEE_MemCompare>:
__GP11_TEE_MemCompare():
/home/neu/Desktop/OPTEE/source/public/optee_src/optee/optee_os/lib/libutee/tee_api.c:631
    25b0:	2a0203e2 	mov	w2, w2
    25b4:	17fffffe 	b	25ac <TEE_MemCompare>

00000000000025b8 <TEE_MemFill>:
TEE_MemFill():
/home/neu/Desktop/OPTEE/source/public/optee_src/optee/optee_os/lib/libutee/tee_api.c:636
    25b8:	14002f86 	b	e3d0 <memset>

00000000000025bc <__GP11_TEE_MemFill>:
__GP11_TEE_MemFill():
/home/neu/Desktop/OPTEE/source/public/optee_src/optee/optee_os/lib/libutee/tee_api.c:641
    25bc:	2a0203e2 	mov	w2, w2
    25c0:	17fffffe 	b	25b8 <TEE_MemFill>

00000000000025c4 <TEE_GetSystemTime>:
TEE_GetSystemTime():
/home/neu/Desktop/OPTEE/source/public/optee_src/optee/optee_os/lib/libutee/tee_api.c:647
    25c4:	a9bf7bfd 	stp	x29, x30, [sp, #-16]!
/home/neu/Desktop/OPTEE/source/public/optee_src/optee/optee_os/lib/libutee/tee_api.c:648
    25c8:	aa0003e1 	mov	x1, x0
    25cc:	d2800000 	mov	x0, #0x0                   	// #0
/home/neu/Desktop/OPTEE/source/public/optee_src/optee/optee_os/lib/libutee/tee_api.c:647
    25d0:	910003fd 	mov	x29, sp
/home/neu/Desktop/OPTEE/source/public/optee_src/optee/optee_os/lib/libutee/tee_api.c:648
    25d4:	94000b51 	bl	5318 <_utee_get_time>
/home/neu/Desktop/OPTEE/source/public/optee_src/optee/optee_os/lib/libutee/tee_api.c:650
    25d8:	34000060 	cbz	w0, 25e4 <TEE_GetSystemTime+0x20>
/home/neu/Desktop/OPTEE/source/public/optee_src/optee/optee_os/lib/libutee/tee_api.c:652
    25dc:	a8c17bfd 	ldp	x29, x30, [sp], #16
/home/neu/Desktop/OPTEE/source/public/optee_src/optee/optee_os/lib/libutee/tee_api.c:651
    25e0:	14000780 	b	43e0 <TEE_Panic>
/home/neu/Desktop/OPTEE/source/public/optee_src/optee/optee_os/lib/libutee/tee_api.c:652
    25e4:	a8c17bfd 	ldp	x29, x30, [sp], #16
    25e8:	d65f03c0 	ret

00000000000025ec <TEE_Wait>:
TEE_Wait():
/home/neu/Desktop/OPTEE/source/public/optee_src/optee/optee_os/lib/libutee/tee_api.c:655
    25ec:	a9be7bfd 	stp	x29, x30, [sp, #-32]!
/home/neu/Desktop/OPTEE/source/public/optee_src/optee/optee_os/lib/libutee/tee_api.c:656
    25f0:	2a0003e0 	mov	w0, w0
/home/neu/Desktop/OPTEE/source/public/optee_src/optee/optee_os/lib/libutee/tee_api.c:655
    25f4:	910003fd 	mov	x29, sp
    25f8:	f9000bf3 	str	x19, [sp, #16]
/home/neu/Desktop/OPTEE/source/public/optee_src/optee/optee_os/lib/libutee/tee_api.c:656
    25fc:	94000b44 	bl	530c <_utee_wait>
/home/neu/Desktop/OPTEE/source/public/optee_src/optee/optee_os/lib/libutee/tee_api.c:658
    2600:	7100001f 	cmp	w0, #0x0
    2604:	129fffa1 	mov	w1, #0xffff0002            	// #-65534
/home/neu/Desktop/OPTEE/source/public/optee_src/optee/optee_os/lib/libutee/tee_api.c:656
    2608:	2a0003f3 	mov	w19, w0
/home/neu/Desktop/OPTEE/source/public/optee_src/optee/optee_os/lib/libutee/tee_api.c:658
    260c:	7a411004 	ccmp	w0, w1, #0x4, ne  // ne = any
    2610:	54000040 	b.eq	2618 <TEE_Wait+0x2c>  // b.none
/home/neu/Desktop/OPTEE/source/public/optee_src/optee/optee_os/lib/libutee/tee_api.c:659
    2614:	94000773 	bl	43e0 <TEE_Panic>
/home/neu/Desktop/OPTEE/source/public/optee_src/optee/optee_os/lib/libutee/tee_api.c:662
    2618:	2a1303e0 	mov	w0, w19
    261c:	f9400bf3 	ldr	x19, [sp, #16]
    2620:	a8c27bfd 	ldp	x29, x30, [sp], #32
    2624:	d65f03c0 	ret

0000000000002628 <TEE_GetTAPersistentTime>:
TEE_GetTAPersistentTime():
/home/neu/Desktop/OPTEE/source/public/optee_src/optee/optee_os/lib/libutee/tee_api.c:665
    2628:	a9be7bfd 	stp	x29, x30, [sp, #-32]!
/home/neu/Desktop/OPTEE/source/public/optee_src/optee/optee_os/lib/libutee/tee_api.c:668
    262c:	aa0003e1 	mov	x1, x0
/home/neu/Desktop/OPTEE/source/public/optee_src/optee/optee_os/lib/libutee/tee_api.c:665
    2630:	910003fd 	mov	x29, sp
    2634:	a90153f3 	stp	x19, x20, [sp, #16]
    2638:	aa0003f4 	mov	x20, x0
/home/neu/Desktop/OPTEE/source/public/optee_src/optee/optee_os/lib/libutee/tee_api.c:668
    263c:	d2800020 	mov	x0, #0x1                   	// #1
    2640:	94000b36 	bl	5318 <_utee_get_time>
/home/neu/Desktop/OPTEE/source/public/optee_src/optee/optee_os/lib/libutee/tee_api.c:670
    2644:	7100001f 	cmp	w0, #0x0
/home/neu/Desktop/OPTEE/source/public/optee_src/optee/optee_os/lib/libutee/tee_api.c:668
    2648:	2a0003f3 	mov	w19, w0
/home/neu/Desktop/OPTEE/source/public/optee_src/optee/optee_os/lib/libutee/tee_api.c:670
    264c:	1a9f07e2 	cset	w2, ne  // ne = any
    2650:	1299fe00 	mov	w0, #0xffff300f            	// #-53233
    2654:	6b00027f 	cmp	w19, w0
    2658:	1a9f1041 	csel	w1, w2, wzr, ne  // ne = any
    265c:	34000041 	cbz	w1, 2664 <TEE_GetTAPersistentTime+0x3c>
/home/neu/Desktop/OPTEE/source/public/optee_src/optee/optee_os/lib/libutee/tee_api.c:672
    2660:	29007e9f 	stp	wzr, wzr, [x20]
/home/neu/Desktop/OPTEE/source/public/optee_src/optee/optee_os/lib/libutee/tee_api.c:676
    2664:	11402e60 	add	w0, w19, #0xb, lsl #12
/home/neu/Desktop/OPTEE/source/public/optee_src/optee/optee_os/lib/libutee/tee_api.c:675
    2668:	7100005f 	cmp	w2, #0x0
    266c:	7a411800 	ccmp	w0, #0x1, #0x0, ne  // ne = any
    2670:	540000e9 	b.ls	268c <TEE_GetTAPersistentTime+0x64>  // b.plast
/home/neu/Desktop/OPTEE/source/public/optee_src/optee/optee_os/lib/libutee/tee_api.c:677
    2674:	340000c1 	cbz	w1, 268c <TEE_GetTAPersistentTime+0x64>
/home/neu/Desktop/OPTEE/source/public/optee_src/optee/optee_os/lib/libutee/tee_api.c:678
    2678:	129ffe60 	mov	w0, #0xffff000c            	// #-65524
    267c:	6b00027f 	cmp	w19, w0
    2680:	54000060 	b.eq	268c <TEE_GetTAPersistentTime+0x64>  // b.none
/home/neu/Desktop/OPTEE/source/public/optee_src/optee/optee_os/lib/libutee/tee_api.c:680
    2684:	2a1303e0 	mov	w0, w19
    2688:	94000756 	bl	43e0 <TEE_Panic>
/home/neu/Desktop/OPTEE/source/public/optee_src/optee/optee_os/lib/libutee/tee_api.c:683
    268c:	2a1303e0 	mov	w0, w19
    2690:	a94153f3 	ldp	x19, x20, [sp, #16]
    2694:	a8c27bfd 	ldp	x29, x30, [sp], #32
    2698:	d65f03c0 	ret

000000000000269c <TEE_SetTAPersistentTime>:
TEE_SetTAPersistentTime():
/home/neu/Desktop/OPTEE/source/public/optee_src/optee/optee_os/lib/libutee/tee_api.c:686
    269c:	a9be7bfd 	stp	x29, x30, [sp, #-32]!
    26a0:	910003fd 	mov	x29, sp
    26a4:	f9000bf3 	str	x19, [sp, #16]
/home/neu/Desktop/OPTEE/source/public/optee_src/optee/optee_os/lib/libutee/tee_api.c:689
    26a8:	94000b1f 	bl	5324 <_utee_set_ta_time>
/home/neu/Desktop/OPTEE/source/public/optee_src/optee/optee_os/lib/libutee/tee_api.c:691
    26ac:	7100001f 	cmp	w0, #0x0
    26b0:	129ffe61 	mov	w1, #0xffff000c            	// #-65524
/home/neu/Desktop/OPTEE/source/public/optee_src/optee/optee_os/lib/libutee/tee_api.c:689
    26b4:	2a0003f3 	mov	w19, w0
/home/neu/Desktop/OPTEE/source/public/optee_src/optee/optee_os/lib/libutee/tee_api.c:691
    26b8:	7a411004 	ccmp	w0, w1, #0x4, ne  // ne = any
    26bc:	540000a0 	b.eq	26d0 <TEE_SetTAPersistentTime+0x34>  // b.none
/home/neu/Desktop/OPTEE/source/public/optee_src/optee/optee_os/lib/libutee/tee_api.c:692
    26c0:	1299f7c1 	mov	w1, #0xffff3041            	// #-53183
    26c4:	6b01001f 	cmp	w0, w1
    26c8:	54000040 	b.eq	26d0 <TEE_SetTAPersistentTime+0x34>  // b.none
/home/neu/Desktop/OPTEE/source/public/optee_src/optee/optee_os/lib/libutee/tee_api.c:694
    26cc:	94000745 	bl	43e0 <TEE_Panic>
/home/neu/Desktop/OPTEE/source/public/optee_src/optee/optee_os/lib/libutee/tee_api.c:697
    26d0:	2a1303e0 	mov	w0, w19
    26d4:	f9400bf3 	ldr	x19, [sp, #16]
    26d8:	a8c27bfd 	ldp	x29, x30, [sp], #32
    26dc:	d65f03c0 	ret

00000000000026e0 <TEE_GetREETime>:
TEE_GetREETime():
/home/neu/Desktop/OPTEE/source/public/optee_src/optee/optee_os/lib/libutee/tee_api.c:700
    26e0:	a9bf7bfd 	stp	x29, x30, [sp, #-16]!
/home/neu/Desktop/OPTEE/source/public/optee_src/optee/optee_os/lib/libutee/tee_api.c:701
    26e4:	aa0003e1 	mov	x1, x0
    26e8:	d2800040 	mov	x0, #0x2                   	// #2
/home/neu/Desktop/OPTEE/source/public/optee_src/optee/optee_os/lib/libutee/tee_api.c:700
    26ec:	910003fd 	mov	x29, sp
/home/neu/Desktop/OPTEE/source/public/optee_src/optee/optee_os/lib/libutee/tee_api.c:701
    26f0:	94000b0a 	bl	5318 <_utee_get_time>
/home/neu/Desktop/OPTEE/source/public/optee_src/optee/optee_os/lib/libutee/tee_api.c:703
    26f4:	34000060 	cbz	w0, 2700 <TEE_GetREETime+0x20>
/home/neu/Desktop/OPTEE/source/public/optee_src/optee/optee_os/lib/libutee/tee_api.c:705
    26f8:	a8c17bfd 	ldp	x29, x30, [sp], #16
/home/neu/Desktop/OPTEE/source/public/optee_src/optee/optee_os/lib/libutee/tee_api.c:704
    26fc:	14000739 	b	43e0 <TEE_Panic>
/home/neu/Desktop/OPTEE/source/public/optee_src/optee/optee_os/lib/libutee/tee_api.c:705
    2700:	a8c17bfd 	ldp	x29, x30, [sp], #16
    2704:	d65f03c0 	ret

0000000000002708 <TEE_Malloc>:
TEE_Malloc():
/home/neu/Desktop/OPTEE/source/public/optee_src/optee/optee_os/lib/libutee/tee_api.c:708
    2708:	a9be7bfd 	stp	x29, x30, [sp, #-32]!
    270c:	aa0003e2 	mov	x2, x0
/home/neu/Desktop/OPTEE/source/public/optee_src/optee/optee_os/lib/libutee/tee_api.c:709
    2710:	71000c3f 	cmp	w1, #0x3
/home/neu/Desktop/OPTEE/source/public/optee_src/optee/optee_os/lib/libutee/tee_api.c:708
    2714:	910003fd 	mov	x29, sp
    2718:	f9000bf3 	str	x19, [sp, #16]
    271c:	2a0103f3 	mov	w19, w1
/home/neu/Desktop/OPTEE/source/public/optee_src/optee/optee_os/lib/libutee/tee_api.c:709
    2720:	54000148 	b.hi	2748 <TEE_Malloc+0x40>  // b.pmore
    2724:	51000421 	sub	w1, w1, #0x1
    2728:	7100083f 	cmp	w1, #0x2
    272c:	54000308 	b.hi	278c <TEE_Malloc+0x84>  // b.pmore
    2730:	f0000060 	adrp	x0, 11000 <__text_end+0x2998>
    2734:	911c0000 	add	x0, x0, #0x700
    2738:	38614800 	ldrb	w0, [x0, w1, uxtw]
    273c:	10000061 	adr	x1, 2748 <TEE_Malloc+0x40>
    2740:	8b208820 	add	x0, x1, w0, sxtb #2
    2744:	d61f0000 	br	x0
    2748:	52b00001 	mov	w1, #0x80000000            	// #-2147483648
    274c:	6b01027f 	cmp	w19, w1
    2750:	540005e0 	b.eq	280c <TEE_Malloc+0x104>  // b.none
/home/neu/Desktop/OPTEE/source/public/optee_src/optee/optee_os/lib/libutee/tee_api.c:742
    2754:	52800023 	mov	w3, #0x1                   	// #1
    2758:	2a1303e5 	mov	w5, w19
    275c:	f0000064 	adrp	x4, 11000 <__text_end+0x2998>
    2760:	91390c84 	add	x4, x4, #0xe43
    2764:	52800022 	mov	w2, #0x1                   	// #1
    2768:	52805cc1 	mov	w1, #0x2e6                 	// #742
    276c:	f0000060 	adrp	x0, 11000 <__text_end+0x2998>
    2770:	911c2000 	add	x0, x0, #0x708
    2774:	97fff80f 	bl	7b0 <trace_printf>
/home/neu/Desktop/OPTEE/source/public/optee_src/optee/optee_os/lib/libutee/tee_api.c:744
    2778:	d2800003 	mov	x3, #0x0                   	// #0
/home/neu/Desktop/OPTEE/source/public/optee_src/optee/optee_os/lib/libutee/tee_api.c:745
    277c:	aa0303e0 	mov	x0, x3
    2780:	f9400bf3 	ldr	x19, [sp, #16]
    2784:	a8c27bfd 	ldp	x29, x30, [sp], #32
    2788:	d65f03c0 	ret
/home/neu/Desktop/OPTEE/source/public/optee_src/optee/optee_os/lib/libutee/tee_api.c:711
    278c:	b40004c0 	cbz	x0, 2824 <TEE_Malloc+0x11c>
/home/neu/Desktop/OPTEE/source/public/optee_src/optee/optee_os/lib/libutee/tee_api.c:745
    2790:	f9400bf3 	ldr	x19, [sp, #16]
/home/neu/Desktop/OPTEE/source/public/optee_src/optee/optee_os/lib/libutee/tee_api.c:713
    2794:	aa0003e1 	mov	x1, x0
/home/neu/Desktop/OPTEE/source/public/optee_src/optee/optee_os/lib/libutee/tee_api.c:745
    2798:	a8c27bfd 	ldp	x29, x30, [sp], #32
/home/neu/Desktop/OPTEE/source/public/optee_src/optee/optee_os/lib/libutee/tee_api.c:713
    279c:	d2800020 	mov	x0, #0x1                   	// #1
    27a0:	14002dc7 	b	debc <calloc>
/home/neu/Desktop/OPTEE/source/public/optee_src/optee/optee_os/lib/libutee/tee_api.c:716
    27a4:	52800000 	mov	w0, #0x0                   	// #0
    27a8:	9400070e 	bl	43e0 <TEE_Panic>
/home/neu/Desktop/OPTEE/source/public/optee_src/optee/optee_os/lib/libutee/tee_api.c:717
    27ac:	17ffffea 	b	2754 <TEE_Malloc+0x4c>
/home/neu/Desktop/OPTEE/source/public/optee_src/optee/optee_os/lib/libutee/tee_api.c:720
    27b0:	b4000362 	cbz	x2, 281c <TEE_Malloc+0x114>
/home/neu/Desktop/OPTEE/source/public/optee_src/optee/optee_os/lib/libutee/tee_api.c:722
    27b4:	b0000080 	adrp	x0, 13000 <_DYNAMIC>
    27b8:	f940d800 	ldr	x0, [x0, #432]
    27bc:	f9400003 	ldr	x3, [x0]
    27c0:	b4fffde3 	cbz	x3, 277c <TEE_Malloc+0x74>
/home/neu/Desktop/OPTEE/source/public/optee_src/optee/optee_os/lib/libutee/tee_api.c:745
    27c4:	f9400bf3 	ldr	x19, [sp, #16]
/home/neu/Desktop/OPTEE/source/public/optee_src/optee/optee_os/lib/libutee/tee_api.c:724
    27c8:	aa0303e4 	mov	x4, x3
/home/neu/Desktop/OPTEE/source/public/optee_src/optee/optee_os/lib/libutee/tee_api.c:745
    27cc:	a8c27bfd 	ldp	x29, x30, [sp], #32
/home/neu/Desktop/OPTEE/source/public/optee_src/optee/optee_os/lib/libutee/tee_api.c:724
    27d0:	aa0203e3 	mov	x3, x2
    27d4:	d2800001 	mov	x1, #0x0                   	// #0
    27d8:	d2800022 	mov	x2, #0x1                   	// #1
    27dc:	d2800000 	mov	x0, #0x0                   	// #0
    27e0:	14002d63 	b	dd6c <raw_calloc>
/home/neu/Desktop/OPTEE/source/public/optee_src/optee/optee_os/lib/libutee/tee_api.c:727
    27e4:	b40001c2 	cbz	x2, 281c <TEE_Malloc+0x114>
/home/neu/Desktop/OPTEE/source/public/optee_src/optee/optee_os/lib/libutee/tee_api.c:729
    27e8:	b0000080 	adrp	x0, 13000 <_DYNAMIC>
    27ec:	f940d800 	ldr	x0, [x0, #432]
    27f0:	f9400003 	ldr	x3, [x0]
    27f4:	b4fffc43 	cbz	x3, 277c <TEE_Malloc+0x74>
/home/neu/Desktop/OPTEE/source/public/optee_src/optee/optee_os/lib/libutee/tee_api.c:745
    27f8:	f9400bf3 	ldr	x19, [sp, #16]
/home/neu/Desktop/OPTEE/source/public/optee_src/optee/optee_os/lib/libutee/tee_api.c:731
    27fc:	d2800001 	mov	x1, #0x0                   	// #0
/home/neu/Desktop/OPTEE/source/public/optee_src/optee/optee_os/lib/libutee/tee_api.c:745
    2800:	a8c27bfd 	ldp	x29, x30, [sp], #32
/home/neu/Desktop/OPTEE/source/public/optee_src/optee/optee_os/lib/libutee/tee_api.c:731
    2804:	d2800000 	mov	x0, #0x0                   	// #0
    2808:	14002d51 	b	dd4c <raw_malloc>
/home/neu/Desktop/OPTEE/source/public/optee_src/optee/optee_os/lib/libutee/tee_api.c:734
    280c:	b40000c0 	cbz	x0, 2824 <TEE_Malloc+0x11c>
/home/neu/Desktop/OPTEE/source/public/optee_src/optee/optee_os/lib/libutee/tee_api.c:745
    2810:	f9400bf3 	ldr	x19, [sp, #16]
    2814:	a8c27bfd 	ldp	x29, x30, [sp], #32
/home/neu/Desktop/OPTEE/source/public/optee_src/optee/optee_os/lib/libutee/tee_api.c:736
    2818:	14002da3 	b	dea4 <malloc>
/home/neu/Desktop/OPTEE/source/public/optee_src/optee/optee_os/lib/libutee/tee_api.c:721
    281c:	d2800043 	mov	x3, #0x2                   	// #2
    2820:	17ffffd7 	b	277c <TEE_Malloc+0x74>
/home/neu/Desktop/OPTEE/source/public/optee_src/optee/optee_os/lib/libutee/tee_api.c:712
    2824:	d2800023 	mov	x3, #0x1                   	// #1
    2828:	17ffffd5 	b	277c <TEE_Malloc+0x74>

000000000000282c <__GP11_TEE_Malloc>:
__GP11_TEE_Malloc():
/home/neu/Desktop/OPTEE/source/public/optee_src/optee/optee_os/lib/libutee/tee_api.c:749
    282c:	2a0003e0 	mov	w0, w0
    2830:	17ffffb6 	b	2708 <TEE_Malloc>

0000000000002834 <TEE_Free>:
TEE_Free():
/home/neu/Desktop/OPTEE/source/public/optee_src/optee/optee_os/lib/libutee/tee_api.c:790
    2834:	d1000401 	sub	x1, x0, #0x1
    2838:	f100043f 	cmp	x1, #0x1
    283c:	540002a9 	b.ls	2890 <TEE_Free+0x5c>  // b.plast
/home/neu/Desktop/OPTEE/source/public/optee_src/optee/optee_os/lib/libutee/tee_api.c:789
    2840:	a9be7bfd 	stp	x29, x30, [sp, #-32]!
addr_is_in_no_share_heap():
/home/neu/Desktop/OPTEE/source/public/optee_src/optee/optee_os/lib/libutee/tee_api.c:754
    2844:	d2800021 	mov	x1, #0x1                   	// #1
TEE_Free():
/home/neu/Desktop/OPTEE/source/public/optee_src/optee/optee_os/lib/libutee/tee_api.c:789
    2848:	910003fd 	mov	x29, sp
    284c:	f9000bf3 	str	x19, [sp, #16]
    2850:	aa0003f3 	mov	x19, x0
addr_is_in_no_share_heap():
/home/neu/Desktop/OPTEE/source/public/optee_src/optee/optee_os/lib/libutee/tee_api.c:754
    2854:	97fffc7a 	bl	1a3c <buf_overlaps_no_share_heap>
TEE_Free():
/home/neu/Desktop/OPTEE/source/public/optee_src/optee/optee_os/lib/libutee/tee_api.c:792
    2858:	72001c1f 	tst	w0, #0xff
    285c:	54000120 	b.eq	2880 <TEE_Free+0x4c>  // b.none
/home/neu/Desktop/OPTEE/source/public/optee_src/optee/optee_os/lib/libutee/tee_api.c:793
    2860:	b0000080 	adrp	x0, 13000 <_DYNAMIC>
    2864:	52800002 	mov	w2, #0x0                   	// #0
    2868:	f940d800 	ldr	x0, [x0, #432]
    286c:	f9400001 	ldr	x1, [x0]
    2870:	aa1303e0 	mov	x0, x19
/home/neu/Desktop/OPTEE/source/public/optee_src/optee/optee_os/lib/libutee/tee_api.c:797
    2874:	f9400bf3 	ldr	x19, [sp, #16]
    2878:	a8c27bfd 	ldp	x29, x30, [sp], #32
/home/neu/Desktop/OPTEE/source/public/optee_src/optee/optee_os/lib/libutee/tee_api.c:793
    287c:	14002d38 	b	dd5c <raw_free>
/home/neu/Desktop/OPTEE/source/public/optee_src/optee/optee_os/lib/libutee/tee_api.c:795
    2880:	aa1303e0 	mov	x0, x19
/home/neu/Desktop/OPTEE/source/public/optee_src/optee/optee_os/lib/libutee/tee_api.c:797
    2884:	f9400bf3 	ldr	x19, [sp, #16]
    2888:	a8c27bfd 	ldp	x29, x30, [sp], #32
/home/neu/Desktop/OPTEE/source/public/optee_src/optee/optee_os/lib/libutee/tee_api.c:795
    288c:	14002da6 	b	df24 <free>
    2890:	d65f03c0 	ret

0000000000002894 <TEE_Realloc>:
TEE_Realloc():
/home/neu/Desktop/OPTEE/source/public/optee_src/optee/optee_os/lib/libutee/tee_api.c:758
    2894:	a9be7bfd 	stp	x29, x30, [sp, #-32]!
    2898:	910003fd 	mov	x29, sp
    289c:	a90153f3 	stp	x19, x20, [sp, #16]
    28a0:	aa0003f3 	mov	x19, x0
/home/neu/Desktop/OPTEE/source/public/optee_src/optee/optee_os/lib/libutee/tee_api.c:759
    28a4:	b5000161 	cbnz	x1, 28d0 <TEE_Realloc+0x3c>
/home/neu/Desktop/OPTEE/source/public/optee_src/optee/optee_os/lib/libutee/tee_api.c:760
    28a8:	97ffffe3 	bl	2834 <TEE_Free>
addr_is_in_no_share_heap():
/home/neu/Desktop/OPTEE/source/public/optee_src/optee/optee_os/lib/libutee/tee_api.c:754
    28ac:	aa1303e0 	mov	x0, x19
    28b0:	d2800021 	mov	x1, #0x1                   	// #1
    28b4:	97fffc62 	bl	1a3c <buf_overlaps_no_share_heap>
TEE_Realloc():
/home/neu/Desktop/OPTEE/source/public/optee_src/optee/optee_os/lib/libutee/tee_api.c:765
    28b8:	72001c1f 	tst	w0, #0xff
    28bc:	9a9f07e0 	cset	x0, ne  // ne = any
    28c0:	91000400 	add	x0, x0, #0x1
/home/neu/Desktop/OPTEE/source/public/optee_src/optee/optee_os/lib/libutee/tee_api.c:781
    28c4:	a94153f3 	ldp	x19, x20, [sp, #16]
    28c8:	a8c27bfd 	ldp	x29, x30, [sp], #32
    28cc:	d65f03c0 	ret
/home/neu/Desktop/OPTEE/source/public/optee_src/optee/optee_os/lib/libutee/tee_api.c:768
    28d0:	f100041f 	cmp	x0, #0x1
    28d4:	54000081 	b.ne	28e4 <TEE_Realloc+0x50>  // b.any
/home/neu/Desktop/OPTEE/source/public/optee_src/optee/optee_os/lib/libutee/tee_api.c:781
    28d8:	a94153f3 	ldp	x19, x20, [sp, #16]
    28dc:	a8c27bfd 	ldp	x29, x30, [sp], #32
/home/neu/Desktop/OPTEE/source/public/optee_src/optee/optee_os/lib/libutee/tee_api.c:769
    28e0:	14002d77 	b	debc <calloc>
    28e4:	aa0103f4 	mov	x20, x1
/home/neu/Desktop/OPTEE/source/public/optee_src/optee/optee_os/lib/libutee/tee_api.c:770
    28e8:	f100081f 	cmp	x0, #0x2
    28ec:	540001a1 	b.ne	2920 <TEE_Realloc+0x8c>  // b.any
/home/neu/Desktop/OPTEE/source/public/optee_src/optee/optee_os/lib/libutee/tee_api.c:771
    28f0:	b0000080 	adrp	x0, 13000 <_DYNAMIC>
    28f4:	f940d800 	ldr	x0, [x0, #432]
    28f8:	f9400000 	ldr	x0, [x0]
    28fc:	b4fffe40 	cbz	x0, 28c4 <TEE_Realloc+0x30>
/home/neu/Desktop/OPTEE/source/public/optee_src/optee/optee_os/lib/libutee/tee_api.c:781
    2900:	a94153f3 	ldp	x19, x20, [sp, #16]
/home/neu/Desktop/OPTEE/source/public/optee_src/optee/optee_os/lib/libutee/tee_api.c:773
    2904:	aa0003e4 	mov	x4, x0
/home/neu/Desktop/OPTEE/source/public/optee_src/optee/optee_os/lib/libutee/tee_api.c:781
    2908:	a8c27bfd 	ldp	x29, x30, [sp], #32
/home/neu/Desktop/OPTEE/source/public/optee_src/optee/optee_os/lib/libutee/tee_api.c:773
    290c:	aa0103e3 	mov	x3, x1
    2910:	d2800022 	mov	x2, #0x1                   	// #1
    2914:	d2800001 	mov	x1, #0x0                   	// #0
    2918:	d2800000 	mov	x0, #0x0                   	// #0
    291c:	14002d14 	b	dd6c <raw_calloc>
addr_is_in_no_share_heap():
/home/neu/Desktop/OPTEE/source/public/optee_src/optee/optee_os/lib/libutee/tee_api.c:754
    2920:	d2800021 	mov	x1, #0x1                   	// #1
    2924:	97fffc46 	bl	1a3c <buf_overlaps_no_share_heap>
TEE_Realloc():
/home/neu/Desktop/OPTEE/source/public/optee_src/optee/optee_os/lib/libutee/tee_api.c:776
    2928:	72001c1f 	tst	w0, #0xff
    292c:	54000160 	b.eq	2958 <TEE_Realloc+0xc4>  // b.none
/home/neu/Desktop/OPTEE/source/public/optee_src/optee/optee_os/lib/libutee/tee_api.c:777
    2930:	b0000080 	adrp	x0, 13000 <_DYNAMIC>
    2934:	aa1403e3 	mov	x3, x20
    2938:	d2800002 	mov	x2, #0x0                   	// #0
    293c:	d2800001 	mov	x1, #0x0                   	// #0
    2940:	f940d800 	ldr	x0, [x0, #432]
    2944:	f9400004 	ldr	x4, [x0]
    2948:	aa1303e0 	mov	x0, x19
/home/neu/Desktop/OPTEE/source/public/optee_src/optee/optee_os/lib/libutee/tee_api.c:781
    294c:	a94153f3 	ldp	x19, x20, [sp, #16]
    2950:	a8c27bfd 	ldp	x29, x30, [sp], #32
/home/neu/Desktop/OPTEE/source/public/optee_src/optee/optee_os/lib/libutee/tee_api.c:777
    2954:	14002d1a 	b	ddbc <raw_realloc>
/home/neu/Desktop/OPTEE/source/public/optee_src/optee/optee_os/lib/libutee/tee_api.c:780
    2958:	aa1403e1 	mov	x1, x20
    295c:	aa1303e0 	mov	x0, x19
/home/neu/Desktop/OPTEE/source/public/optee_src/optee/optee_os/lib/libutee/tee_api.c:781
    2960:	a94153f3 	ldp	x19, x20, [sp, #16]
    2964:	a8c27bfd 	ldp	x29, x30, [sp], #32
/home/neu/Desktop/OPTEE/source/public/optee_src/optee/optee_os/lib/libutee/tee_api.c:780
    2968:	14002d5c 	b	ded8 <realloc>

000000000000296c <__GP11_TEE_Realloc>:
__GP11_TEE_Realloc():
/home/neu/Desktop/OPTEE/source/public/optee_src/optee/optee_os/lib/libutee/tee_api.c:785
    296c:	2a0103e1 	mov	w1, w1
    2970:	17ffffc9 	b	2894 <TEE_Realloc>

0000000000002974 <TEE_CacheClean>:
TEE_CacheClean():
/home/neu/Desktop/OPTEE/source/public/optee_src/optee/optee_os/lib/libutee/tee_api.c:802
    2974:	d2800002 	mov	x2, #0x0                   	// #0
    2978:	14000ae6 	b	5510 <_utee_cache_operation>

000000000000297c <TEE_CacheFlush>:
TEE_CacheFlush():
/home/neu/Desktop/OPTEE/source/public/optee_src/optee/optee_os/lib/libutee/tee_api.c:806
    297c:	d2800022 	mov	x2, #0x1                   	// #1
    2980:	14000ae4 	b	5510 <_utee_cache_operation>

0000000000002984 <TEE_CacheInvalidate>:
TEE_CacheInvalidate():
/home/neu/Desktop/OPTEE/source/public/optee_src/optee/optee_os/lib/libutee/tee_api.c:811
    2984:	d2800042 	mov	x2, #0x2                   	// #2
    2988:	14000ae2 	b	5510 <_utee_cache_operation>

000000000000298c <__utee_from_attr>:
__utee_from_attr():
/home/neu/Desktop/OPTEE/source/public/optee_src/optee/optee_os/lib/libutee/tee_api_objects.c:19
    298c:	2a0203e2 	mov	w2, w2
    2990:	d2800003 	mov	x3, #0x0                   	// #0
/home/neu/Desktop/OPTEE/source/public/optee_src/optee/optee_os/lib/libutee/tee_api_objects.c:19 (discriminator 1)
    2994:	eb03005f 	cmp	x2, x3
    2998:	54000048 	b.hi	29a0 <__utee_from_attr+0x14>  // b.pmore
/home/neu/Desktop/OPTEE/source/public/optee_src/optee/optee_os/lib/libutee/tee_api_objects.c:29
    299c:	d65f03c0 	ret
/home/neu/Desktop/OPTEE/source/public/optee_src/optee/optee_os/lib/libutee/tee_api_objects.c:20
    29a0:	b9400024 	ldr	w4, [x1]
    29a4:	b9001004 	str	w4, [x0, #16]
/home/neu/Desktop/OPTEE/source/public/optee_src/optee/optee_os/lib/libutee/tee_api_objects.c:21
    29a8:	36e80124 	tbz	w4, #29, 29cc <__utee_from_attr+0x40>
/home/neu/Desktop/OPTEE/source/public/optee_src/optee/optee_os/lib/libutee/tee_api_objects.c:22
    29ac:	b9400824 	ldr	w4, [x1, #8]
    29b0:	f9000004 	str	x4, [x0]
/home/neu/Desktop/OPTEE/source/public/optee_src/optee/optee_os/lib/libutee/tee_api_objects.c:23
    29b4:	b9400c24 	ldr	w4, [x1, #12]
/home/neu/Desktop/OPTEE/source/public/optee_src/optee/optee_os/lib/libutee/tee_api_objects.c:19
    29b8:	91000463 	add	x3, x3, #0x1
    29bc:	91006021 	add	x1, x1, #0x18
    29c0:	91006000 	add	x0, x0, #0x18
/home/neu/Desktop/OPTEE/source/public/optee_src/optee/optee_os/lib/libutee/tee_api_objects.c:26
    29c4:	f81f0004 	stur	x4, [x0, #-16]
/home/neu/Desktop/OPTEE/source/public/optee_src/optee/optee_os/lib/libutee/tee_api_objects.c:19
    29c8:	17fffff3 	b	2994 <__utee_from_attr+0x8>
/home/neu/Desktop/OPTEE/source/public/optee_src/optee/optee_os/lib/libutee/tee_api_objects.c:25
    29cc:	f9400424 	ldr	x4, [x1, #8]
    29d0:	f9000004 	str	x4, [x0]
/home/neu/Desktop/OPTEE/source/public/optee_src/optee/optee_os/lib/libutee/tee_api_objects.c:26
    29d4:	f9400824 	ldr	x4, [x1, #16]
    29d8:	17fffff8 	b	29b8 <__utee_from_attr+0x2c>

00000000000029dc <__utee_from_gp11_attr>:
__utee_from_gp11_attr():
/home/neu/Desktop/OPTEE/source/public/optee_src/optee/optee_os/lib/libutee/tee_api_objects.c:37
    29dc:	2a0203e2 	mov	w2, w2
    29e0:	d2800003 	mov	x3, #0x0                   	// #0
/home/neu/Desktop/OPTEE/source/public/optee_src/optee/optee_os/lib/libutee/tee_api_objects.c:37 (discriminator 1)
    29e4:	eb03005f 	cmp	x2, x3
    29e8:	54000048 	b.hi	29f0 <__utee_from_gp11_attr+0x14>  // b.pmore
/home/neu/Desktop/OPTEE/source/public/optee_src/optee/optee_os/lib/libutee/tee_api_objects.c:47
    29ec:	d65f03c0 	ret
/home/neu/Desktop/OPTEE/source/public/optee_src/optee/optee_os/lib/libutee/tee_api_objects.c:38
    29f0:	b9400024 	ldr	w4, [x1]
    29f4:	b9001004 	str	w4, [x0, #16]
/home/neu/Desktop/OPTEE/source/public/optee_src/optee/optee_os/lib/libutee/tee_api_objects.c:39
    29f8:	36e80124 	tbz	w4, #29, 2a1c <__utee_from_gp11_attr+0x40>
/home/neu/Desktop/OPTEE/source/public/optee_src/optee/optee_os/lib/libutee/tee_api_objects.c:40
    29fc:	b9400824 	ldr	w4, [x1, #8]
    2a00:	f9000004 	str	x4, [x0]
/home/neu/Desktop/OPTEE/source/public/optee_src/optee/optee_os/lib/libutee/tee_api_objects.c:41
    2a04:	b9400c24 	ldr	w4, [x1, #12]
/home/neu/Desktop/OPTEE/source/public/optee_src/optee/optee_os/lib/libutee/tee_api_objects.c:37
    2a08:	91000463 	add	x3, x3, #0x1
    2a0c:	91006021 	add	x1, x1, #0x18
    2a10:	91006000 	add	x0, x0, #0x18
/home/neu/Desktop/OPTEE/source/public/optee_src/optee/optee_os/lib/libutee/tee_api_objects.c:44
    2a14:	f81f0004 	stur	x4, [x0, #-16]
/home/neu/Desktop/OPTEE/source/public/optee_src/optee/optee_os/lib/libutee/tee_api_objects.c:37
    2a18:	17fffff3 	b	29e4 <__utee_from_gp11_attr+0x8>
/home/neu/Desktop/OPTEE/source/public/optee_src/optee/optee_os/lib/libutee/tee_api_objects.c:43
    2a1c:	f9400424 	ldr	x4, [x1, #8]
    2a20:	f9000004 	str	x4, [x0]
/home/neu/Desktop/OPTEE/source/public/optee_src/optee/optee_os/lib/libutee/tee_api_objects.c:44
    2a24:	b9401024 	ldr	w4, [x1, #16]
    2a28:	17fffff8 	b	2a08 <__utee_from_gp11_attr+0x2c>

0000000000002a2c <TEE_GetObjectInfo>:
TEE_GetObjectInfo():
/home/neu/Desktop/OPTEE/source/public/optee_src/optee/optee_os/lib/libutee/tee_api_objects.c:57
    2a2c:	a9bb7bfd 	stp	x29, x30, [sp, #-80]!
    2a30:	910003fd 	mov	x29, sp
    2a34:	f9000bf3 	str	x19, [sp, #16]
    2a38:	aa0103f3 	mov	x19, x1
    2a3c:	b0000081 	adrp	x1, 13000 <_DYNAMIC>
/home/neu/Desktop/OPTEE/source/public/optee_src/optee/optee_os/lib/libutee/tee_api_objects.c:58
    2a40:	a902ffff 	stp	xzr, xzr, [sp, #40]
/home/neu/Desktop/OPTEE/source/public/optee_src/optee/optee_os/lib/libutee/tee_api_objects.c:57
    2a44:	f9409821 	ldr	x1, [x1, #304]
/home/neu/Desktop/OPTEE/source/public/optee_src/optee/optee_os/lib/libutee/tee_api_objects.c:58
    2a48:	f9001fff 	str	xzr, [sp, #56]
    2a4c:	b90043ff 	str	wzr, [sp, #64]
/home/neu/Desktop/OPTEE/source/public/optee_src/optee/optee_os/lib/libutee/tee_api_objects.c:57
    2a50:	f9400022 	ldr	x2, [x1]
    2a54:	f90027e2 	str	x2, [sp, #72]
    2a58:	d2800002 	mov	x2, #0x0                   	// #0
/home/neu/Desktop/OPTEE/source/public/optee_src/optee/optee_os/lib/libutee/tee_api_objects.c:61
    2a5c:	9100a3e1 	add	x1, sp, #0x28
    2a60:	94000a4f 	bl	539c <_utee_cryp_obj_get_info>
/home/neu/Desktop/OPTEE/source/public/optee_src/optee/optee_os/lib/libutee/tee_api_objects.c:63
    2a64:	34000040 	cbz	w0, 2a6c <TEE_GetObjectInfo+0x40>
/home/neu/Desktop/OPTEE/source/public/optee_src/optee/optee_os/lib/libutee/tee_api_objects.c:64
    2a68:	9400065e 	bl	43e0 <TEE_Panic>
/home/neu/Desktop/OPTEE/source/public/optee_src/optee/optee_os/lib/libutee/tee_api_objects.c:66
    2a6c:	b9402be1 	ldr	w1, [sp, #40]
    2a70:	528017c0 	mov	w0, #0xbe                  	// #190
    2a74:	72b40000 	movk	w0, #0xa000, lsl #16
    2a78:	6b00003f 	cmp	w1, w0
    2a7c:	540001a1 	b.ne	2ab0 <TEE_GetObjectInfo+0x84>  // b.any
/home/neu/Desktop/OPTEE/source/public/optee_src/optee/optee_os/lib/libutee/tee_api_objects.c:67
